(lp0
Ved 
p1
aV co
p2
aV re
p3
aVes 
p4
aVing
p5
aVion
p6
aVng 
p7
aV sa
p8
aVon 
p9
aVer 
p10
aVid 
p11
aVter
p12
aVaid
p13
aVrs 
p14
aVsai
p15
aVent
p16
aV pr
p17
aV in
p18
aVtio
p19
aVts 
p20
aVal 
p21
aVnt 
p22
aV ma
p23
aVres
p24
aV de
p25
aVate
p26
aVcom
p27
aVs s
p28
aVati
p29
aVmln
p30
aVln 
p31
aV ml
p32
aVpro
p33
aVmen
p34
aV st
p35
aVst 
p36
aVct 
p37
aVear
p38
aVdlr
p39
aV dl
p40
aVted
p41
aVcon
p42
aV ba
p43
aV sh
p44
aVly 
p45
aV se
p46
aVan 
p47
aVest
p48
aVvs 
p49
aVlrs
p50
aVers
p51
aV ex
p52
aVld 
p53
aVd s
p54
aV00 
p55
aVute
p56
aVs c
p57
aVry 
p58
aV ne
p59
aVar 
p60
aVet 
p61
aVn d
p62
aVeut
p63
aVns 
p64
aVce 
p65
aV pc
p66
aVpct
p67
aVreu
p68
aV lo
p69
aV fi
p70
aV vs
p71
aVte 
p72
aVort
p73
aV 19
p74
aVse 
p75
aVs p
p76
aVinc
p77
aVpri
p78
aVtra
p79
aVons
p80
aV ye
p81
aVe s
p82
aVn s
p83
aV pa
p84
aVrat
p85
aVare
p86
aVill
p87
aVper
p88
aVver
p89
aVomp
p90
aVtin
p91
aVe c
p92
aVt s
p93
aV to
p94
aVban
p95
aVs r
p96
aVnd 
p97
aVect
p98
aVpan
p99
aVd c
p100
aV,00
p101
aV000
p102
aVmar
p103
aVhar
p104
aVsta
p105
aVank
p106
aVle 
p107
aVs 1
p108
aVss 
p109
aVyea
p110
aVred
p111
aVre 
p112
aV198
p113
aVcts
p114
aVnce
p115
aVint
p116
aVpor
p117
aVd r
p118
aVay 
p119
aV ca
p120
aVnte
p121
aVs a
p122
aVrea
p123
aViti
p124
aVbil
p125
aVric
p126
aVlli
p127
aV tr
p128
aV bi
p129
aVive
p130
aVne 
p131
aVine
p132
aV su
p133
aV wo
p134
aVy s
p135
aVd p
p136
aVr s
p137
aVstr
p138
aVies
p139
aVd a
p140
aVder
p141
aVe p
p142
aVman
p143
aV la
p144
aVve 
p145
aVdin
p146
aV di
p147
aVera
p148
aVoun
p149
aVsha
p150
aVcor
p151
aVend
p152
aVit 
p153
aVanc
p154
aVt c
p155
aVmpa
p156
aV mo
p157
aVil 
p158
aV fo
p159
aVial
p160
aVove
p161
aVste
p162
aVcha
p163
aVpre
p164
aVnal
p165
aVexp
p166
aVall
p167
aVont
p168
aVice
p169
aVary
p170
aVoff
p171
aVde 
p172
aV ct
p173
aVeas
p174
aVart
p175
aVeve
p176
aVt p
p177
aVnes
p178
aVoul
p179
aVge 
p180
aVll 
p181
aVmon
p182
aVess
p183
aVuld
p184
aVs i
p185
aVlos
p186
aVs l
p187
aVd m
p188
aVina
p189
aVcti
p190
aV ra
p191
aVone
p192
aVlio
p193
aVope
p194
aVpar
p195
aV ac
p196
aVces
p197
aVfor
p198
aV al
p199
aV un
p200
aVomm
p201
aVcou
p202
aVe m
p203
aVuar
p204
aVain
p205
aVure
p206
aVern
p207
aVast
p208
aVn c
p209
aVtur
p210
aV pe
p211
aVeme
p212
aV me
p213
aVs f
p214
aV gr
p215
aVmin
p216
aVs m
p217
aV of
p218
aVrec
p219
aVor 
p220
aVran
p221
aVs d
p222
aVsed
p223
aV po
p224
aVs e
p225
aVsto
p226
aVs t
p227
aVide
p228
aVica
p229
aVist
p230
aVlin
p231
aVold
p232
aVny 
p233
aVany
p234
aVage
p235
aVe a
p236
aVree
p237
aVoss
p238
aVcia
p239
aVe r
p240
aVark
p241
aV le
p242
aVtor
p243
aVnk 
p244
aVeco
p245
aVduc
p246
aVmer
p247
aVade
p248
aVty 
p249
aVeri
p250
aVd d
p251
aVnat
p252
aVble
p253
aV mi
p254
aVase
p255
aV fe
p256
aVrt 
p257
aVcre
p258
aVfic
p259
aVt r
p260
aVand
p261
aV ta
p262
aV so
p263
aV no
p264
aV bo
p265
aVffe
p266
aV ag
p267
aVsti
p268
aV ch
p269
aVtal
p270
aVere
p271
aVral
p272
aVin 
p273
aVs n
p274
aVfer
p275
aVust
p276
aVd b
p277
aVren
p278
aVs b
p279
aVrd 
p280
aVnti
p281
aVnet
p282
aVen 
p283
aVals
p284
aVrad
p285
aVth 
p286
aV we
p287
aVd t
p288
aVlan
p289
aVcur
p290
aVd f
p291
aVls 
p292
aVwou
p293
aVds 
p294
aV si
p295
aVnts
p296
aVtes
p297
aV en
p298
aVnde
p299
aVrev
p300
aV op
p301
aVch 
p302
aVe d
p303
aVg s
p304
aV bu
p305
aV li
p306
aV ap
p307
aVntr
p308
aV u.
p309
aV ja
p310
aVana
p311
aVact
p312
aVund
p313
aVale
p314
aVour
p315
aVant
p316
aVigh
p317
aVu.s
p318
aVrke
p319
aVpec
p320
aVd e
p321
aVrit
p322
aVks 
p323
aVona
p324
aVt a
p325
aV go
p326
aViss
p327
aVue 
p328
aVind
p329
aVsin
p330
aVy c
p331
aVlat
p332
aV te
p333
aVday
p334
aVnge
p335
aV ho
p336
aVang
p337
aVgre
p338
aV an
p339
aVtri
p340
aV ad
p341
aVl s
p342
aV fa
p343
aV cu
p344
aVr c
p345
aVic 
p346
aVber
p347
aVity
p348
aV0 m
p349
aV.s.
p350
aVt t
p351
aVtat
p352
aVond
p353
aVton
p354
aVs v
p355
aVe f
p356
aVhan
p357
aVded
p358
aVpos
p359
aVn p
p360
aVned
p361
aVd l
p362
aVrep
p363
aVrre
p364
aVici
p365
aVs. 
p366
aVd i
p367
aVr p
p368
aVndi
p369
aVket
p370
aVves
p371
aVfin
p372
aVini
p373
aVuct
p374
aV br
p375
aVn a
p376
aV pl
p377
aVe b
p378
aVs w
p379
aVrin
p380
aVs o
p381
aVenc
p382
aVsio
p383
aVsal
p384
aVnin
p385
aVt f
p386
aVck 
p387
aVy a
p388
aVg c
p389
aVe t
p390
aVrte
p391
aVrod
p392
aVorp
p393
aVrch
p394
aVrop
p395
aVord
p396
aVunt
p397
aV cr
p398
aVt m
p399
aVore
p400
aVtiv
p401
aVgro
p402
aVqui
p403
aVden
p404
aVcal
p405
aVme 
p406
aVdit
p407
aV sp
p408
aVnew
p409
aVake
p410
aVodu
p411
aV 10
p412
aVee 
p413
aVght
p414
aVise
p415
aVlas
p416
aVher
p417
aV th
p418
aVose
p419
aVabl
p420
aVlar
p421
aVell
p422
aVles
p423
aVese
p424
aVote
p425
aVs 2
p426
aVsec
p427
aVt l
p428
aV86 
p429
aVe e
p430
aV986
p431
aVagr
p432
aVew 
p433
aVuni
p434
aVe i
p435
aVn r
p436
aVock
p437
aVner
p438
aVl c
p439
aVpla
p440
aVven
p441
aVshr
p442
aVrou
p443
aV ea
p444
aVssi
p445
aVt d
p446
aVrge
p447
aV do
p448
aVout
p449
aVt b
p450
aVt i
p451
aVy r
p452
aVdeb
p453
aVsur
p454
aV be
p455
aVrp 
p456
aV qu
p457
aVlow
p458
aV im
p459
aVard
p460
aVisi
p461
aV 1.
p462
aVffi
p463
aVfit
p464
aVans
p465
aVn v
p466
aVerm
p467
aVdec
p468
aVdis
p469
aVd 1
p470
aVpay
p471
aVnc 
p472
aV on
p473
aVfir
p474
aVsid
p475
aVssu
p476
aVtic
p477
aVger
p478
aVus 
p479
aVign
p480
aVnve
p481
aVene
p482
aVt e
p483
aVnne
p484
aVn b
p485
aVtan
p486
aV ec
p487
aVt 1
p488
aVerv
p489
aVtoc
p490
aVnot
p491
aVili
p492
aVten
p493
aVcan
p494
aVedi
p495
aVe 1
p496
aVn t
p497
aVrof
p498
aV fu
p499
aVd o
p500
aVrie
p501
aVnit
p502
aVn m
p503
aVtie
p504
aVris
p505
aVire
p506
aVoll
p507
aVl p
p508
aVe l
p509
aVe o
p510
aVece
p511
aV wa
p512
aVser
p513
aVofi
p514
aVtem
p515
aVowe
p516
aVco 
p517
aVwor
p518
aVome
p519
aVhol
p520
aVmbe
p521
aVthe
p522
aV da
p523
aVexc
p524
aVril
p525
aVht 
p526
aVecu
p527
aVcen
p528
aVs g
p529
aVong
p530
aVeed
p531
aVy p
p532
aVrov
p533
aV0 d
p534
aVnci
p535
aV as
p536
aV ri
p537
aVead
p538
aV ar
p539
aVxpe
p540
aVd n
p541
aV pu
p542
aVarg
p543
aVimp
p544
aVrow
p545
aVass
p546
aVd w
p547
aVame
p548
aV is
p549
aV fr
p550
aVite
p551
aVtwo
p552
aVg p
p553
aVult
p554
aVuri
p555
aVy d
p556
aVn f
p557
aV he
p558
aV am
p559
aV tw
p560
aVgs 
p561
aVhr 
p562
aVnan
p563
aVlit
p564
aVlso
p565
aVso 
p566
aVeal
p567
aVurr
p568
aVr a
p569
aVarc
p570
aVoil
p571
aVlea
p572
aVous
p573
aV na
p574
aVvel
p575
aVn e
p576
aVclu
p577
aVert
p578
aV ga
p579
aVr e
p580
aVapa
p581
aVebt
p582
aVy m
p583
aVke 
p584
aVinv
p585
aVgen
p586
aVnis
p587
aVgra
p588
aVr r
p589
aV ge
p590
aV ro
p591
aVmat
p592
aVs u
p593
aVtim
p594
aVeig
p595
aVbla
p596
aVemb
p597
aVtro
p598
aVins
p599
aVsub
p600
aVnom
p601
aVtar
p602
aVurc
p603
aVs 3
p604
aVsou
p605
aV oi
p606
aVeek
p607
aVrma
p608
aVled
p609
aVspe
p610
aVche
p611
aVpen
p612
aVqua
p613
aVrti
p614
aVomi
p615
aVngs
p616
aViat
p617
aVdes
p618
aVnua
p619
aVann
p620
aVsen
p621
aVonn
p622
aVms 
p623
aVhin
p624
aVude
p625
aVsse
p626
aVkin
p627
aVtte
p628
aVsit
p629
aVlah
p630
aVlud
p631
aVacc
p632
aVel 
p633
aVapp
p634
aVnth
p635
aVepo
p636
aV ce
p637
aVcte
p638
aV0,0
p639
aVtme
p640
aVtai
p641
aVarl
p642
aVeti
p643
aVced
p644
aVrts
p645
aVost
p646
aVlly
p647
aVow 
p648
aVl b
p649
aVors
p650
aVses
p651
aVt w
p652
aVt y
p653
aVwo 
p654
aVely
p655
aVtry
p656
aVbt 
p657
aVhea
p658
aVian
p659
aV.5 
p660
aVota
p661
aVrce
p662
aVoup
p663
aVt g
p664
aVxpo
p665
aVrio
p666
aVlie
p667
aVrai
p668
aVcer
p669
aVjap
p670
aVali
p671
aVndu
p672
aVapr
p673
aV ha
p674
aVr t
p675
aVsue
p676
aVuse
p677
aVd g
p678
aVo s
p679
aVita
p680
aVunc
p681
aVas 
p682
aVut 
p683
aVeta
p684
aVlic
p685
aVker
p686
aVisc
p687
aVarr
p688
aVchi
p689
aVsh 
p690
aVia 
p691
aVono
p692
aVele
p693
aVros
p694
aVr m
p695
aVmit
p696
aVr l
p697
aVcat
p698
aVr 1
p699
aVl a
p700
aV5 m
p701
aVsts
p702
aVrm 
p703
aV av
p704
aVmme
p705
aVanu
p706
aVlla
p707
aVtak
p708
aVgov
p709
aV cl
p710
aVnme
p711
aVnds
p712
aVl r
p713
aVn i
p714
aVrst
p715
aV 15
p716
aVequ
p717
aVh b
p718
aVevi
p719
aVeat
p720
aV du
p721
aVncr
p722
aVrna
p723
aVwee
p724
aVrel
p725
aVref
p726
aVcas
p727
aVadd
p728
aVr d
p729
aVe w
p730
aVair
p731
aVshi
p732
aVyst
p733
aVari
p734
aVt o
p735
aVy f
p736
aVcy 
p737
aVtia
p738
aVc s
p739
aV 20
p740
aVey 
p741
aVe g
p742
aV bl
p743
aV0 p
p744
aVeem
p745
aVtly
p746
aV87 
p747
aVg a
p748
aVdia
p749
aVdep
p750
aVr b
p751
aV ou
p752
aVson
p753
aVars
p754
aV0 v
p755
aVrei
p756
aVn n
p757
aVn l
p758
aVs h
p759
aVown
p760
aVncl
p761
aVbas
p762
aVail
p763
aVy i
p764
aVadi
p765
aVset
p766
aVdiv
p767
aVd u
p768
aV wi
p769
aVrve
p770
aVy b
p771
aVirs
p772
aVmis
p773
aVrnm
p774
aVspo
p775
aVeet
p776
aV50 
p777
aVthr
p778
aVlle
p779
aVdus
p780
aVrn 
p781
aV us
p782
aVy t
p783
aVe n
p784
aVoli
p785
aVuce
p786
aVp s
p787
aVmmi
p788
aVivi
p789
aVext
p790
aVg r
p791
aVbon
p792
aVs 4
p793
aVl m
p794
aVnta
p795
aVjan
p796
aVvis
p797
aVhou
p798
aVmic
p799
aVnks
p800
aVmpo
p801
aVani
p802
aV 1,
p803
aV hi
p804
aVual
p805
aVy e
p806
aVoin
p807
aVorm
p808
aVloa
p809
aVcto
p810
aVmpl
p811
aVtre
p812
aVr f
p813
aVxch
p814
aVmay
p815
aVy 1
p816
aVk s
p817
aVime
p818
aVret
p819
aVr n
p820
aVt n
p821
aVirm
p822
aVfeb
p823
aVhre
p824
aVad 
p825
aVup 
p826
aVval
p827
aVnsi
p828
aVmai
p829
aVl 1
p830
aVgn 
p831
aV987
p832
aVwar
p833
aVvid
p834
aV 2.
p835
aVnag
p836
aVsho
p837
aVd h
p838
aV85 
p839
aVugh
p840
aV 12
p841
aVek 
p842
aVovi
p843
aVema
p844
aVesi
p845
aVlon
p846
aVmed
p847
aVbru
p848
aVis 
p849
aVlia
p850
aVeci
p851
aVple
p852
aVacq
p853
aVs 5
p854
aVlde
p855
aVepa
p856
aVa s
p857
aVefi
p858
aVrem
p859
aVebr
p860
aVean
p861
aVedu
p862
aV au
p863
aVrli
p864
aVcul
p865
aVgin
p866
aVl i
p867
aVets
p868
aVrua
p869
aVah 
p870
aVevs
p871
aVr i
p872
aVy l
p873
aV wh
p874
aV 30
p875
aVuti
p876
aVcco
p877
aVede
p878
aVcqu
p879
aVllo
p880
aVod 
p881
aVy o
p882
aVood
p883
aVerg
p884
aVcit
p885
aVg t
p886
aVnue
p887
aV ni
p888
aV985
p889
aVrni
p890
aVwer
p891
aV dr
p892
aVdea
p893
aVfac
p894
aVwin
p895
aVues
p896
aV es
p897
aVoug
p898
aVerc
p899
aVori
p900
aVtot
p901
aVarn
p902
aVum 
p903
aVyme
p904
aVrol
p905
aV5 p
p906
aVasi
p907
aVr o
p908
aVinu
p909
aVits
p910
aVpur
p911
aVg m
p912
aVeli
p913
aVifi
p914
aVhel
p915
aVork
p916
aVlis
p917
aVdol
p918
aVbra
p919
aV0 r
p920
aVier
p921
aV lt
p922
aVpac
p923
aVfou
p924
aVria
p925
aVthi
p926
aVoan
p927
aVula
p928
aVatt
p929
aVved
p930
aVclo
p931
aVl d
p932
aVltd
p933
aVt u
p934
aVlr 
p935
aV ti
p936
aVens
p937
aVges
p938
aVg d
p939
aVsel
p940
aVmmo
p941
aVusi
p942
aV2 m
p943
aVrk 
p944
aVrth
p945
aVtax
p946
aVtho
p947
aVl e
p948
aVish
p949
aVdue
p950
aVima
p951
aVtru
p952
aVler
p953
aVg f
p954
aV10 
p955
aVora
p956
aVtel
p957
aVtol
p958
aVhor
p959
aVcap
p960
aVcut
p961
aVhig
p962
aVn o
p963
aVack
p964
aVcar
p965
aVura
p966
aVl t
p967
aVhs 
p968
aV or
p969
aVoke
p970
aVn g
p971
aVtd 
p972
aVsol
p973
aVubs
p974
aVsup
p975
aVhip
p976
aVsis
p977
aVg b
p978
aVior
p979
aVuro
p980
aVash
p981
aViou
p982
aVged
p983
aVe u
p984
aVopo
p985
aVput
p986
aVn w
p987
aV.2 
p988
aVuth
p989
aVuir
p990
aVoda
p991
aVpit
p992
aVat 
p993
aVg i
p994
aVitt
p995
aVrdi
p996
aVur 
p997
aVrag
p998
aV 11
p999
aVane
p1000
aVlev
p1001
aVwes
p1002
aVhed
p1003
aVtee
p1004
aVeld
p1005
aVmee
p1006
aVsee
p1007
aV.3 
p1008
aVncy
p1009
aVnch
p1010
aVn 1
p1011
aV.1 
p1012
aVdy 
p1013
aVget
p1014
aVtod
p1015
aVax 
p1016
aVths
p1017
aVs y
p1018
aVaym
p1019
aVl f
p1020
aVhow
p1021
aVmes
p1022
aVara
p1023
aVosi
p1024
aValy
p1025
aVmor
p1026
aVnda
p1027
aVrly
p1028
aVsma
p1029
aVhas
p1030
aVcem
p1031
aVrac
p1032
aVgan
p1033
aV30 
p1034
aVfiv
p1035
aVppr
p1036
aVeur
p1037
aVpea
p1038
aVnsu
p1039
aVsig
p1040
aVg e
p1041
aVbli
p1042
aVlec
p1043
aVreg
p1044
aVnor
p1045
aV.6 
p1046
aVdat
p1047
aVfra
p1048
aV gu
p1049
aVpet
p1050
aVfun
p1051
aV.4 
p1052
aVbus
p1053
aVdef
p1054
aVnst
p1055
aVpon
p1056
aVsul
p1057
aVec 
p1058
aVstm
p1059
aVued
p1060
aV6 m
p1061
aVorl
p1062
aVdel
p1063
aV mu
p1064
aV 13
p1065
aVe h
p1066
aVsea
p1067
aVkes
p1068
aVmak
p1069
aVtit
p1070
aVpol
p1071
aVnco
p1072
aVupp
p1073
aVave
p1074
aV.7 
p1075
aVtab
p1076
aV 3.
p1077
aVpti
p1078
aVfee
p1079
aV3 m
p1080
aV.8 
p1081
aV1 m
p1082
aVbor
p1083
aVbuy
p1084
aVete
p1085
aVibl
p1086
aVs 6
p1087
aVrld
p1088
aV vi
p1089
aVnio
p1090
aVicu
p1091
aV 14
p1092
aVg l
p1093
aVam 
p1094
aVasu
p1095
aV20 
p1096
aVapi
p1097
aVach
p1098
aVvic
p1099
aVyin
p1100
aV15 
p1101
aVemp
p1102
aV.9 
p1103
aVbro
p1104
aVsum
p1105
aV 31
p1106
aVecl
p1107
aV 50
p1108
aV fl
p1109
aV4 m
p1110
aVlet
p1111
aV0 t
p1112
aVgh 
p1113
aV eu
p1114
aVesu
p1115
aVpin
p1116
aV7 m
p1117
aVcin
p1118
aV25 
p1119
aV8 m
p1120
aV va
p1121
aVl l
p1122
aVels
p1123
aVvin
p1124
aVrob
p1125
aV sy
p1126
aVegi
p1127
aVron
p1128
aVrms
p1129
aVept
p1130
aVike
p1131
aVile
p1132
aVdde
p1133
aVbri
p1134
aVctu
p1135
aVesp
p1136
aVrvi
p1137
aVazi
p1138
aVpme
p1139
aVerr
p1140
aV2 p
p1141
aVk c
p1142
aVett
p1143
aVoar
p1144
aVpli
p1145
aVidi
p1146
aVbar
p1147
aVays
p1148
aVfed
p1149
aVl g
p1150
aVnad
p1151
aVd j
p1152
aVace
p1153
aVr g
p1154
aV af
p1155
aVlys
p1156
aV 25
p1157
aVlop
p1158
aVgo 
p1159
aVsix
p1160
aVjec
p1161
aVr w
p1162
aVela
p1163
aVvio
p1164
aVvie
p1165
aVoti
p1166
aVcs 
p1167
aVtil
p1168
aV0 b
p1169
aVo c
p1170
aVt h
p1171
aV0 c
p1172
aVraz
p1173
aValt
p1174
aVda 
p1175
aVith
p1176
aVamo
p1177
aV ju
p1178
aVy w
p1179
aVt 2
p1180
aVimi
p1181
aVshe
p1182
aVs 7
p1183
aVwhe
p1184
aVboa
p1185
aVl o
p1186
aVaci
p1187
aVnou
p1188
aV0 s
p1189
aVala
p1190
aVh s
p1191
aVem 
p1192
aVila
p1193
aV.0 
p1194
aVzil
p1195
aVstg
p1196
aVdev
p1197
aVfar
p1198
aVys 
p1199
aVeff
p1200
aVix 
p1201
aVta 
p1202
aVs j
p1203
aVcli
p1204
aVtg 
p1205
aVd 2
p1206
aVlus
p1207
aVlen
p1208
aVney
p1209
aVmal
p1210
aValu
p1211
aV ai
p1212
aVume
p1213
aVrta
p1214
aVjor
p1215
aVubl
p1216
aVfec
p1217
aVh c
p1218
aVuts
p1219
aVied
p1220
aVn y
p1221
aVrog
p1222
aV9 m
p1223
aVurn
p1224
aVowi
p1225
aVna 
p1226
aV 16
p1227
aVgat
p1228
aV4 p
p1229
aV-1/
p1230
aV1,0
p1231
aVsch
p1232
aVy g
p1233
aVaus
p1234
aVelo
p1235
aVram
p1236
aVpoi
p1237
aV ru
p1238
aVppo
p1239
aV ef
p1240
aVppl
p1241
aV ve
p1242
aVogr
p1243
aVudi
p1244
aV 2,
p1245
aVrig
p1246
aV8 p
p1247
aVabi
p1248
aV jo
p1249
aVppe
p1250
aVega
p1251
aVben
p1252
aVsev
p1253
aVcos
p1254
aV31 
p1255
aVato
p1256
aVg o
p1257
aVdon
p1258
aVarm
p1259
aVnar
p1260
aVmaj
p1261
aVroc
p1262
aVwed
p1263
aVnse
p1264
aVe y
p1265
aVps 
p1266
aVajo
p1267
aVuis
p1268
aVlab
p1269
aVpok
p1270
aVole
p1271
aVful
p1272
aVntu
p1273
aVg 1
p1274
aV ..
p1275
aVmad
p1276
aVrme
p1277
aVeni
p1278
aV 17
p1279
aVy h
p1280
aVc c
p1281
aVn u
p1282
aVaro
p1283
aVmea
p1284
aVoth
p1285
aVefe
p1286
aViva
p1287
aVcro
p1288
aVop 
p1289
aV ci
p1290
aV el
p1291
aVfal
p1292
aVorg
p1293
aVnno
p1294
aV gi
p1295
aVatu
p1296
aVwit
p1297
aVrri
p1298
aVdem
p1299
aVlf 
p1300
aVy n
p1301
aVque
p1302
aVplo
p1303
aVreh
p1304
aVais
p1305
aVe 2
p1306
aVsco
p1307
aVdic
p1308
aV5 b
p1309
aVplu
p1310
aVgai
p1311
aVeho
p1312
aVcus
p1313
aVriv
p1314
aVdom
p1315
aVize
p1316
aV at
p1317
aVlt 
p1318
aVnie
p1319
aVfre
p1320
aV sc
p1321
aVndo
p1322
aVntl
p1323
aV100
p1324
aVhal
p1325
aVorr
p1326
aVnon
p1327
aVtis
p1328
aV's 
p1329
aVitu
p1330
aVesm
p1331
aV5,0
p1332
aVon-
p1333
aVgar
p1334
aVull
p1335
aV.. 
p1336
aVsys
p1337
aVa c
p1338
aVwth
p1339
aVowt
p1340
aV 18
p1341
aV...
p1342
aVcla
p1343
aVcie
p1344
aVbsi
p1345
aVinf
p1346
aV00,
p1347
aVk a
p1348
aVlik
p1349
aVyen
p1350
aVcce
p1351
aV eq
p1352
aViel
p1353
aVfel
p1354
aVlem
p1355
aV 4.
p1356
aVl n
p1357
aVk p
p1358
aVvat
p1359
aVcip
p1360
aVh a
p1361
aVrib
p1362
aVddi
p1363
aVo p
p1364
aVs 8
p1365
aVleg
p1366
aVonv
p1367
aVaso
p1368
aVgem
p1369
aVrci
p1370
aVeng
p1371
aVorn
p1372
aVpub
p1373
aVhai
p1374
aVs 9
p1375
aVmpe
p1376
aVghe
p1377
aVk e
p1378
aVbal
p1379
aVc p
p1380
aVmou
p1381
aVonc
p1382
aVemi
p1383
aVrro
p1384
aVmpr
p1385
aVruc
p1386
aVn h
p1387
aVrda
p1388
aViod
p1389
aVt j
p1390
aVked
p1391
aVrtm
p1392
aVutu
p1393
aVnic
p1394
aVbou
p1395
aVws 
p1396
aVlue
p1397
aVreq
p1398
aV6 p
p1399
aV5 c
p1400
aVwel
p1401
aVneg
p1402
aVurp
p1403
aVy u
p1404
aV em
p1405
aVerl
p1406
aVh 1
p1407
aVook
p1408
aVldi
p1409
aVico
p1410
aV199
p1411
aVnex
p1412
aV sl
p1413
aVply
p1414
aVway
p1415
aVbel
p1416
aVwri
p1417
aVery
p1418
aVflo
p1419
aVm s
p1420
aVe j
p1421
aVrne
p1422
aVnee
p1423
aV pi
p1424
aV vo
p1425
aVsso
p1426
aVtle
p1427
aViff
p1428
aVgiv
p1429
aValk
p1430
aVetr
p1431
aVurt
p1432
aVgri
p1433
aVavi
p1434
aVaff
p1435
aVlac
p1436
aVcei
p1437
aVgul
p1438
aVrde
p1439
aVerd
p1440
aVlig
p1441
aVt q
p1442
aVmil
p1443
aVh p
p1444
aVtec
p1445
aVwan
p1446
aV ev
p1447
aVfig
p1448
aVopp
p1449
aVmov
p1450
aVnnu
p1451
aVt 3
p1452
aV12 
p1453
aVsay
p1454
aVlls
p1455
aVnke
p1456
aV ab
p1457
aVfil
p1458
aVigu
p1459
aVaut
p1460
aVfol
p1461
aVca 
p1462
aVr y
p1463
aVoce
p1464
aVm c
p1465
aVgas
p1466
aVems
p1467
aVgy 
p1468
aVvol
p1469
aVg n
p1470
aVego
p1471
aVrse
p1472
aVgot
p1473
aVlim
p1474
aVxt 
p1475
aVosa
p1476
aV 5.
p1477
aVcru
p1478
aVaki
p1479
aVd 3
p1480
aVl w
p1481
aVrmi
p1482
aVape
p1483
aVsug
p1484
aVsib
p1485
aVrpl
p1486
aVonf
p1487
aV 0.
p1488
aV sw
p1489
aVbac
p1490
aV5 d
p1491
aVago
p1492
aVgur
p1493
aV/8 
p1494
aVped
p1495
aVfri
p1496
aVkel
p1497
aVdge
p1498
aVcil
p1499
aVune
p1500
aVdir
p1501
aVtom
p1502
aVoci
p1503
aVrra
p1504
aVury
p1505
aVsoc
p1506
aVquo
p1507
aVfut
p1508
aVr u
p1509
aVida
p1510
aV/4 
p1511
aVg g
p1512
aV 3,
p1513
aVopt
p1514
aVpte
p1515
aV ow
p1516
aVwn 
p1517
aV tu
p1518
aV 40
p1519
aVea 
p1520
aVrot
p1521
aVuot
p1522
aVg w
p1523
aVeca
p1524
aViar
p1525
aVbut
p1526
aVito
p1527
aVmet
p1528
aV 22
p1529
aVdar
p1530
aVltu
p1531
aVeth
p1532
aVory
p1533
aVwne
p1534
aV ei
p1535
aVepr
p1536
aVloc
p1537
aVhil
p1538
aVipp
p1539
aVsca
p1540
aVhrs
p1541
aV ke
p1542
aVrga
p1543
aV2,0
p1544
aVy 2
p1545
aVeso
p1546
aVexe
p1547
aV ov
p1548
aV3,0
p1549
aVcov
p1550
aVmun
p1551
aVmpt
p1552
aVlif
p1553
aVavg
p1554
aV16 
p1555
aVk r
p1556
aVuit
p1557
aVrpo
p1558
aVech
p1559
aVcis
p1560
aVibu
p1561
aVnov
p1562
aVyes
p1563
aVvg 
p1564
aVsat
p1565
aVo i
p1566
aV88 
p1567
aV 24
p1568
aVuy 
p1569
aV-ye
p1570
aVk d
p1571
aVr h
p1572
aVl 2
p1573
aVp c
p1574
aVt v
p1575
aVgoo
p1576
aVadv
p1577
aVnsa
p1578
aVd y
p1579
aVeac
p1580
aVsia
p1581
aVmmu
p1582
aVhir
p1583
aVjus
p1584
aVrab
p1585
aVa p
p1586
aVe v
p1587
aVgol
p1588
aV4,0
p1589
aVir 
p1590
aVild
p1591
aV6 c
p1592
aVngl
p1593
aV2 c
p1594
aVpai
p1595
aVfie
p1596
aVipa
p1597
aVdro
p1598
aVk i
p1599
aVpt 
p1600
aVsly
p1601
aVtst
p1602
aVfle
p1603
aVano
p1604
aVbid
p1605
aVa a
p1606
aV6,0
p1607
aV500
p1608
aVrus
p1609
aVsda
p1610
aVada
p1611
aVrks
p1612
aVrim
p1613
aVeak
p1614
aVobl
p1615
aVmem
p1616
aV hu
p1617
aVgne
p1618
aVusl
p1619
aVebe
p1620
aV 23
p1621
aVk b
p1622
aVos 
p1623
aVeiv
p1624
aVule
p1625
aVict
p1626
aVuga
p1627
aV40 
p1628
aV200
p1629
aVo a
p1630
aVtua
p1631
aVdet
p1632
aVex 
p1633
aVttl
p1634
aVlks
p1635
aV0 1
p1636
aVtif
p1637
aViet
p1638
aV1.5
p1639
aV 28
p1640
aView
p1641
aVtch
p1642
aVip 
p1643
aV 7.
p1644
aVcol
p1645
aV7 p
p1646
aVcep
p1647
aValf
p1648
aVexi
p1649
aVium
p1650
aVliv
p1651
aV1/2
p1652
aV75 
p1653
aVbea
p1654
aVken
p1655
aVcle
p1656
aV8,0
p1657
aVmbi
p1658
aVerw
p1659
aVask
p1660
aVdow
p1661
aV/2 
p1662
aVngt
p1663
aVuil
p1664
aVuin
p1665
aVft 
p1666
aVomo
p1667
aVmod
p1668
aV7,0
p1669
aV 21
p1670
aVroa
p1671
aVo m
p1672
aVees
p1673
aVk m
p1674
aV. c
p1675
aVfai
p1676
aVpap
p1677
aV 27
p1678
aVr 3
p1679
aVa r
p1680
aVw c
p1681
aV1 p
p1682
aVuat
p1683
aVgua
p1684
aVelp
p1685
aVlay
p1686
aVlaw
p1687
aVopm
p1688
aVath
p1689
aVadj
p1690
aVjun
p1691
aVnfl
p1692
aViv 
p1693
aVc a
p1694
aVn j
p1695
aVena
p1696
aVava
p1697
aVe 3
p1698
aVuss
p1699
aVloo
p1700
aVloy
p1701
aVsep
p1702
aV7 c
p1703
aV 6.
p1704
aVh 3
p1705
aVisa
p1706
aVg u
p1707
aVtib
p1708
aVsor
p1709
aVwev
p1710
aVink
p1711
aVcoa
p1712
aVbur
p1713
aVews
p1714
aVady
p1715
aVcee
p1716
aVtag
p1717
aVeno
p1718
aV3 p
p1719
aVh f
p1720
aV60 
p1721
aVecr
p1722
aVily
p1723
aV 4,
p1724
aVich
p1725
aV sm
p1726
aVnki
p1727
aVrud
p1728
aVol 
p1729
aVods
p1730
aVr 2
p1731
aVmul
p1732
aVird
p1733
aVdju
p1734
aVmy 
p1735
aVicy
p1736
aVics
p1737
aViev
p1738
aVeds
p1739
aV 26
p1740
aVm p
p1741
aVef 
p1742
aVipm
p1743
aVlor
p1744
aVsac
p1745
aVbeg
p1746
aVurg
p1747
aVw s
p1748
aVsui
p1749
aV6 r
p1750
aVx c
p1751
aVolv
p1752
aVsla
p1753
aVtut
p1754
aVcke
p1755
aV80 
p1756
aVick
p1757
aVd q
p1758
aVsan
p1759
aV1 c
p1760
aVoni
p1761
aVnea
p1762
aVdif
p1763
aVpas
p1764
aVlve
p1765
aV2 b
p1766
aVfla
p1767
aVp p
p1768
aVils
p1769
aVpat
p1770
aVd v
p1771
aV9,0
p1772
aVspa
p1773
aVegu
p1774
aVlum
p1775
aVk f
p1776
aVhem
p1777
aVomb
p1778
aV 35
p1779
aVro 
p1780
aVxte
p1781
aV 60
p1782
aV ph
p1783
aVova
p1784
aVt 5
p1785
aVien
p1786
aV17 
p1787
aVra 
p1788
aVoca
p1789
aVcif
p1790
aVgis
p1791
aV yo
p1792
aVfis
p1793
aVpe 
p1794
aV11 
p1795
aVenu
p1796
aVo l
p1797
aV. .
p1798
aVsus
p1799
aV 1 
p1800
aVppi
p1801
aVvem
p1802
aVp i
p1803
aV2.5
p1804
aV-te
p1805
aVawa
p1806
aVomy
p1807
aVcri
p1808
aV7 b
p1809
aVvai
p1810
aVo r
p1811
aVw y
p1812
aVk t
p1813
aVmid
p1814
aV8 b
p1815
aVo b
p1816
aVk l
p1817
aV10.
p1818
aVoad
p1819
aV1.2
p1820
aVira
p1821
aVlts
p1822
aVado
p1823
aVupo
p1824
aVt 4
p1825
aVbin
p1826
aV6 b
p1827
aV14 
p1828
aVlth
p1829
aVyor
p1830
aVncs
p1831
aVdra
p1832
aVcks
p1833
aV90 
p1834
aV18 
p1835
aVd 5
p1836
aV.50
p1837
aVp a
p1838
aV 8.
p1839
aVlds
p1840
aVxcl
p1841
aVyie
p1842
aVh r
p1843
aV13 
p1844
aVc r
p1845
aVumb
p1846
aVrid
p1847
aV9 p
p1848
aVtne
p1849
aVio 
p1850
aV ko
p1851
aVske
p1852
aVhon
p1853
aVolo
p1854
aVayi
p1855
aVaft
p1856
aV0 y
p1857
aVnam
p1858
aVrwr
p1859
aVh 2
p1860
aVoor
p1861
aVok 
p1862
aVlti
p1863
aVuch
p1864
aVd 4
p1865
aV1.1
p1866
aV1 b
p1867
aVdul
p1868
aV3 b
p1869
aVolu
p1870
aVwea
p1871
aVcof
p1872
aV nu
p1873
aV ob
p1874
aVurs
p1875
aV bp
p1876
aVlte
p1877
aV4 c
p1878
aVg h
p1879
aV 5,
p1880
aVboo
p1881
aV92 
p1882
aVa i
p1883
aV yi
p1884
aVrom
p1885
aVama
p1886
aVvan
p1887
aVata
p1888
aVief
p1889
aVexa
p1890
aVudg
p1891
aV oc
p1892
aVuff
p1893
aVorc
p1894
aVobe
p1895
aV28 
p1896
aV4 b
p1897
aVscu
p1898
aVqtr
p1899
aVnum
p1900
aVefl
p1901
aVrno
p1902
aVze 
p1903
aVrds
p1904
aVp r
p1905
aVh t
p1906
aV. s
p1907
aVump
p1908
aVutp
p1909
aVrgy
p1910
aVtex
p1911
aVsiv
p1912
aVl h
p1913
aVla 
p1914
aV ir
p1915
aV3 c
p1916
aVs q
p1917
aVhie
p1918
aVrtn
p1919
aVphi
p1920
aV. d
p1921
aV1.3
p1922
aVvit
p1923
aVnso
p1924
aV22 
p1925
aVlp 
p1926
aVeag
p1927
aVtpu
p1928
aVo d
p1929
aV8 c
p1930
aVepe
p1931
aVliz
p1932
aV-3/
p1933
aVl y
p1934
aV ki
p1935
aVo t
p1936
aV5 r
p1937
aVrso
p1938
aVtea
p1939
aVy j
p1940
aV300
p1941
aVngr
p1942
aVswi
p1943
aVhes
p1944
aVlc 
p1945
aVffs
p1946
aVa m
p1947
aVola
p1948
aVuel
p1949
aVjoi
p1950
aVc m
p1951
aVhen
p1952
aVoje
p1953
aVlai
p1954
aVa f
p1955
aVzed
p1956
aVlom
p1957
aVw p
p1958
aV 9.
p1959
aVot 
p1960
aVa b
p1961
aVroj
p1962
aV mt
p1963
aVxtr
p1964
aValr
p1965
aV 29
p1966
aVtr 
p1967
aVh e
p1968
aV1 1
p1969
aVa t
p1970
aVley
p1971
aVsov
p1972
aVplc
p1973
aVdmi
p1974
aVesc
p1975
aVp m
p1976
aVadm
p1977
aVctr
p1978
aVarp
p1979
aVm r
p1980
aVham
p1981
aVlre
p1982
aVh q
p1983
aVmuc
p1984
aVbje
p1985
aVody
p1986
aVnig
p1987
aVxpl
p1988
aVi s
p1989
aV35 
p1990
aViza
p1991
aV11.
p1992
aVxce
p1993
aVaim
p1994
aVstu
p1995
aVpal
p1996
aVbud
p1997
aVodi
p1998
aVmig
p1999
aVm a
p2000
aVc f
p2001
aVgni
p2002
aVnni
p2003
aVoma
p2004
aVa e
p2005
aVnil
p2006
aVul 
p2007
aVto 
p2008
aV lu
p2009
aV qt
p2010
aVtt 
p2011
aVepu
p2012
aVcid
p2013
aVaw 
p2014
aV it
p2015
aV up
p2016
aV1.7
p2017
aV27 
p2018
aVspl
p2019
aVdan
p2020
aVh m
p2021
aVdri
p2022
aV24 
p2023
aVhit
p2024
aV70 
p2025
aVdam
p2026
aVnto
p2027
aV. a
p2028
aVar-
p2029
aVnec
p2030
aV 45
p2031
aVl u
p2032
aV. t
p2033
aVzat
p2034
aVvia
p2035
aVinn
p2036
aVh d
p2037
aVeav
p2038
aV ic
p2039
aVimu
p2040
aV12.
p2041
aV 80
p2042
aVrgi
p2043
aVxpa
p2044
aVgui
p2045
aVrul
p2046
aVmus
p2047
aVc d
p2048
aV15.
p2049
aVaga
p2050
aV-ba
p2051
aVutt
p2052
aVulf
p2053
aVk o
p2054
aV23 
p2055
aVdor
p2056
aVx p
p2057
aVa l
p2058
aVc i
p2059
aVbly
p2060
aVoba
p2061
aVh l
p2062
aVngi
p2063
aVep 
p2064
aVh i
p2065
aVlip
p2066
aVrg 
p2067
aV 75
p2068
aVcau
p2069
aVu.k
p2070
aVufa
p2071
aVusa
p2072
aVnuf
p2073
aVsar
p2074
aVo e
p2075
aVabo
p2076
aVein
p2077
aVbia
p2078
aVleu
p2079
aV9 b
p2080
aVm l
p2081
aVscl
p2082
aValo
p2083
aVmth
p2084
aVgge
p2085
aV988
p2086
aVtti
p2087
aVd 7
p2088
aVspi
p2089
aVbak
p2090
aVyer
p2091
aVmot
p2092
aVxec
p2093
aVeep
p2094
aV26 
p2095
aVubo
p2096
aVsoy
p2097
aV 70
p2098
aVcoo
p2099
aVnia
p2100
aVwas
p2101
aVaud
p2102
aVuna
p2103
aVsli
p2104
aVeum
p2105
aValm
p2106
aV1.4
p2107
aVode
p2108
aVbre
p2109
aVwil
p2110
aVqtl
p2111
aVerf
p2112
aVl 3
p2113
aVssa
p2114
aVrsi
p2115
aVx m
p2116
aVgto
p2117
aVsav
p2118
aVwa 
p2119
aV1/4
p2120
aV,50
p2121
aV13.
p2122
aVnfe
p2123
aVbec
p2124
aVtop
p2125
aV1.6
p2126
aVe 5
p2127
aVsim
p2128
aV 34
p2129
aVwid
p2130
aVd k
p2131
aVlid
p2132
aVoon
p2133
aV19 
p2134
aVo f
p2135
aVer-
p2136
aVg 2
p2137
aV. r
p2138
aViqu
p2139
aVt 6
p2140
aVaya
p2141
aVa o
p2142
aVc o
p2143
aVwis
p2144
aViga
p2145
aVott
p2146
aV1.8
p2147
aV 6,
p2148
aV50,
p2149
aVigi
p2150
aVsem
p2151
aVnfo
p2152
aV45 
p2153
aVm d
p2154
aV5/8
p2155
aVlut
p2156
aVraw
p2157
aVa d
p2158
aV1.0
p2159
aVn 2
p2160
aVy 3
p2161
aVami
p2162
aV.s 
p2163
aVrry
p2164
aVe 4
p2165
aVmoo
p2166
aVush
p2167
aVimm
p2168
aVpd 
p2169
aVino
p2170
aVwns
p2171
aVybe
p2172
aV9 c
p2173
aVdai
p2174
aVavo
p2175
aVoco
p2176
aVfe 
p2177
aV7 r
p2178
aVp f
p2179
aVt 7
p2180
aVeel
p2181
aVnab
p2182
aV't 
p2183
aVm b
p2184
aV wr
p2185
aV 33
p2186
aVbpd
p2187
aVn't
p2188
aV 90
p2189
aVbui
p2190
aVhet
p2191
aVeva
p2192
aVeen
p2193
aVuid
p2194
aVhop
p2195
aV16.
p2196
aVwho
p2197
aVamb
p2198
aVff 
p2199
aVr v
p2200
aV150
p2201
aVetu
p2202
aVgla
p2203
aVr j
p2204
aVrsh
p2205
aVa n
p2206
aVlog
p2207
aVchn
p2208
aV1 r
p2209
aV 37
p2210
aVd 6
p2211
aVpes
p2212
aVk n
p2213
aVpow
p2214
aV8 d
p2215
aV.25
p2216
aVoyb
p2217
aVacr
p2218
aVdre
p2219
aVp l
p2220
aVm i
p2221
aVnus
p2222
aVnol
p2223
aVd 9
p2224
aVtoo
p2225
aVarb
p2226
aV.k.
p2227
aVunl
p2228
aVbst
p2229
aVumi
p2230
aVibi
p2231
aVnen
p2232
aV65 
p2233
aVyab
p2234
aVom 
p2235
aV 7,
p2236
aVows
p2237
aVrok
p2238
aVk. 
p2239
aVtto
p2240
aV 32
p2241
aVisp
p2242
aVc b
p2243
aVips
p2244
aV n'
p2245
aVfoo
p2246
aVcoc
p2247
aVnfi
p2248
aVm e
p2249
aVosp
p2250
aVpot
p2251
aVpoo
p2252
aVc g
p2253
aV6 s
p2254
aV3/4
p2255
aV7 s
p2256
aV7.5
p2257
aVrun
p2258
aVmos
p2259
aVafr
p2260
aVk w
p2261
aV. b
p2262
aVero
p2263
aVait
p2264
aV2.2
p2265
aV17.
p2266
aVirc
p2267
aVuci
p2268
aV10,
p2269
aVhom
p2270
aVs k
p2271
aVw r
p2272
aVe q
p2273
aVrfo
p2274
aV14.
p2275
aVops
p2276
aVipl
p2277
aV6 d
p2278
aV 38
p2279
aVf s
p2280
aViso
p2281
aVmag
p2282
aVemo
p2283
aVubj
p2284
aVvot
p2285
aVp t
p2286
aVnef
p2287
aV3.5
p2288
aVc t
p2289
aVkey
p2290
aVoct
p2291
aVowa
p2292
aVmex
p2293
aV0 n
p2294
aVamp
p2295
aVidd
p2296
aVige
p2297
aVrif
p2298
aVm t
p2299
aVwai
p2300
aV0.5
p2301
aVdut
p2302
aV7/8
p2303
aVnle
p2304
aVsuc
p2305
aVcam
p2306
aVnow
p2307
aVgal
p2308
aVcra
p2309
aVng-
p2310
aVcta
p2311
aVnif
p2312
aVtud
p2313
aVrao
p2314
aVo n
p2315
aVmac
p2316
aV id
p2317
aVoye
p2318
aVeks
p2319
aVtas
p2320
aVsil
p2321
aV 36
p2322
aVp d
p2323
aVuto
p2324
aVisl
p2325
aVre-
p2326
aV ka
p2327
aVnha
p2328
aVteg
p2329
aV2.1
p2330
aVlau
p2331
aVxed
p2332
aV1-1
p2333
aVrap
p2334
aVniz
p2335
aVrum
p2336
aVliq
p2337
aVoop
p2338
aViwa
p2339
aVw m
p2340
aVinl
p2341
aVwat
p2342
aVffo
p2343
aVtob
p2344
aVcka
p2345
aV ly
p2346
aVusd
p2347
aVaiw
p2348
aV1.9
p2349
aV0 a
p2350
aVk g
p2351
aV1 d
p2352
aV 1-
p2353
aV-fo
p2354
aVtha
p2355
aVeov
p2356
aVnsp
p2357
aV400
p2358
aViam
p2359
aVscr
p2360
aVfte
p2361
aV29 
p2362
aVak 
p2363
aVtig
p2364
aVn 3
p2365
aVucc
p2366
aV6 n
p2367
aVp b
p2368
aVh g
p2369
aVoos
p2370
aVdex
p2371
aVepl
p2372
aVw f
p2373
aVjul
p2374
aVixe
p2375
aVsk 
p2376
aVhe 
p2377
aVe 7
p2378
aVl v
p2379
aV 51
p2380
aVuly
p2381
aV aw
p2382
aVwal
p2383
aVcel
p2384
aVcum
p2385
aVaor
p2386
aVife
p2387
aVdva
p2388
aV7 d
p2389
aV. m
p2390
aV84 
p2391
aVc e
p2392
aVrtu
p2393
aVbab
p2394
aVopi
p2395
aVgag
p2396
aVsa 
p2397
aVfix
p2398
aV 42
p2399
aVt 9
p2400
aV4.5
p2401
aVtta
p2402
aVkno
p2403
aVh o
p2404
aVuli
p2405
aVw i
p2406
aVhi 
p2407
aVd 8
p2408
aVag 
p2409
aVkeo
p2410
aVor-
p2411
aV21 
p2412
aVp e
p2413
aVdou
p2414
aVgel
p2415
aVmum
p2416
aVfen
p2417
aV33 
p2418
aVhts
p2419
aVbat
p2420
aVeop
p2421
aV55 
p2422
aVr 4
p2423
aV89 
p2424
aVkee
p2425
aV. g
p2426
aV-ca
p2427
aVrki
p2428
aVc. 
p2429
aVdle
p2430
aVspr
p2431
aV600
p2432
aVi a
p2433
aVdi 
p2434
aVm m
p2435
aVrt-
p2436
aVusp
p2437
aVvar
p2438
aVnvo
p2439
aVbs 
p2440
aVrer
p2441
aVim 
p2442
aVibe
p2443
aVg j
p2444
aVmpu
p2445
aVw a
p2446
aVcop
p2447
aVkag
p2448
aVun 
p2449
aVbul
p2450
aVras
p2451
aVagi
p2452
aVaug
p2453
aVa w
p2454
aValc
p2455
aV 52
p2456
aVo w
p2457
aVchr
p2458
aVsau
p2459
aVift
p2460
aVtok
p2461
aV2 d
p2462
aVg 3
p2463
aVaul
p2464
aVxic
p2465
aV5 1
p2466
aVlib
p2467
aVwo-
p2468
aVslo
p2469
aVefu
p2470
aViro
p2471
aVg v
p2472
aV.75
p2473
aVutc
p2474
aVaws
p2475
aV. e
p2476
aVuns
p2477
aV 65
p2478
aVmba
p2479
aVuad
p2480
aVpel
p2481
aVrik
p2482
aVee-
p2483
aV. p
p2484
aV 41
p2485
aVsba
p2486
aVedg
p2487
aV19.
p2488
aVuyi
p2489
aVrwa
p2490
aVism
p2491
aV 43
p2492
aVgio
p2493
aVdvi
p2494
aVbet
p2495
aVtir
p2496
aV2.3
p2497
aVxas
p2498
aVnim
p2499
aVr q
p2500
aVdie
p2501
aV cy
p2502
aV0 f
p2503
aVefo
p2504
aVap 
p2505
aV800
p2506
aVfs 
p2507
aVlyn
p2508
aVoat
p2509
aVrty
p2510
aVtac
p2511
aVams
p2512
aVoa 
p2513
aV3.8
p2514
aVoub
p2515
aV6 1
p2516
aVlex
p2517
aVyo 
p2518
aV ed
p2519
aV gl
p2520
aVk h
p2521
aV3.2
p2522
aVwhi
p2523
aVuen
p2524
aVesd
p2525
aVnly
p2526
aVm f
p2527
aV32 
p2528
aVpir
p2529
aVenn
p2530
aV-mo
p2531
aVy v
p2532
aVhly
p2533
aVoto
p2534
aVt 8
p2535
aV mc
p2536
aVswe
p2537
aVugg
p2538
aVnvi
p2539
aV2.0
p2540
aVdil
p2541
aVrup
p2542
aVbit
p2543
aVly-
p2544
aVbuf
p2545
aVhic
p2546
aV ur
p2547
aVeki
p2548
aVeam
p2549
aV18.
p2550
aVdne
p2551
aVatc
p2552
aVege
p2553
aVne-
p2554
aVisk
p2555
aVbol
p2556
aVpou
p2557
aVblo
p2558
aV 9,
p2559
aV51 
p2560
aV 55
p2561
aVe 9
p2562
aV 48
p2563
aV 8,
p2564
aV5.5
p2565
aV83 
p2566
aVupe
p2567
aVsle
p2568
aVdee
p2569
aV/87
p2570
aV2.7
p2571
aVc l
p2572
aV-ma
p2573
aV2.6
p2574
aV700
p2575
aV kn
p2576
aV2.4
p2577
aVo o
p2578
aV95 
p2579
aVnga
p2580
aV 46
p2581
aVw e
p2582
aVtga
p2583
aVats
p2584
aV97 
p2585
aVnty
p2586
aVesb
p2587
aV 44
p2588
aV4 d
p2589
aVzer
p2590
aV86/
p2591
aVhur
p2592
aV0.2
p2593
aVm o
p2594
aVald
p2595
aVr 5
p2596
aVraf
p2597
aV6/8
p2598
aVrtg
p2599
aVgle
p2600
aVtow
p2601
aVr-o
p2602
aVpha
p2603
aVgue
p2604
aV ze
p2605
aV. o
p2606
aV34 
p2607
aVroy
p2608
aV2.9
p2609
aV0.3
p2610
aV5 s
p2611
aVmel
p2612
aVpra
p2613
aV3 d
p2614
aVerp
p2615
aVspu
p2616
aVxon
p2617
aVe k
p2618
aVilu
p2619
aVvy 
p2620
aVt k
p2621
aV1 s
p2622
aViri
p2623
aVirl
p2624
aVrtl
p2625
aVnd-
p2626
aV-da
p2627
aVnel
p2628
aVcua
p2629
aVw b
p2630
aVgoi
p2631
aVdly
p2632
aVuip
p2633
aV8.5
p2634
aVlm 
p2635
aVrsu
p2636
aVp. 
p2637
aV-co
p2638
aVkyo
p2639
aVt-t
p2640
aV992
p2641
aVobo
p2642
aVma 
p2643
aVoky
p2644
aV-on
p2645
aVsua
p2646
aVb s
p2647
aV3.1
p2648
aVpho
p2649
aVcab
p2650
aVp n
p2651
aVbun
p2652
aV,60
p2653
aVesa
p2654
aV2.8
p2655
aVxim
p2656
aVxis
p2657
aVttr
p2658
aVf e
p2659
aVy y
p2660
aVie 
p2661
aV0.1
p2662
aVfid
p2663
aVo g
p2664
aVeph
p2665
aVudy
p2666
aVx s
p2667
aVcot
p2668
aVeit
p2669
aVm w
p2670
aVc u
p2671
aVhte
p2672
aV38 
p2673
aV20.
p2674
aVbbe
p2675
aV05 
p2676
aVn k
p2677
aVuck
p2678
aVysi
p2679
aVg-t
p2680
aVugu
p2681
aVlco
p2682
aVx r
p2683
aVrpr
p2684
aVg k
p2685
aVccu
p2686
aVk j
p2687
aVtep
p2688
aVsoo
p2689
aV 49
p2690
aV 47
p2691
aVrgo
p2692
aVagg
p2693
aVp u
p2694
aV je
p2695
aV37 
p2696
aVeer
p2697
aVr k
p2698
aVaun
p2699
aVorw
p2700
aVgth
p2701
aV3.3
p2702
aVg 5
p2703
aVoym
p2704
aV3.6
p2705
aVxpr
p2706
aV1,3
p2707
aV 39
p2708
aV6 f
p2709
aVg y
p2710
aVopl
p2711
aV.00
p2712
aV5.0
p2713
aVutl
p2714
aVkly
p2715
aViab
p2716
aV3.7
p2717
aV1,1
p2718
aVjam
p2719
aVf c
p2720
aVn-c
p2721
aV. f
p2722
aVcho
p2723
aVnc.
p2724
aVgav
p2725
aV52 
p2726
aV 53
p2727
aVvir
p2728
aVoft
p2729
aV9 d
p2730
aV02 
p2731
aVhno
p2732
aVkor
p2733
aV4.1
p2734
aV3.9
p2735
aVhap
p2736
aVp o
p2737
aVtwa
p2738
aVoas
p2739
aV42 
p2740
aV3.0
p2741
aV82 
p2742
aVbig
p2743
aVohn
p2744
aV250
p2745
aVaco
p2746
aV7 1
p2747
aVluc
p2748
aVewe
p2749
aVrew
p2750
aV4.0
p2751
aVeba
p2752
aV1,5
p2753
aVf p
p2754
aVwei
p2755
aV6.5
p2756
aVe-t
p2757
aVab 
p2758
aVkon
p2759
aVa g
p2760
aV4.2
p2761
aVmbo
p2762
aVipe
p2763
aV 99
p2764
aVgus
p2765
aVlot
p2766
aV. i
p2767
aVflu
p2768
aV94 
p2769
aVbee
p2770
aV,80
p2771
aVnn 
p2772
aV-ow
p2773
aV ut
p2774
aVsic
p2775
aV1,4
p2776
aVify
p2777
aVyet
p2778
aVsun
p2779
aVtaf
p2780
aVe 6
p2781
aVxem
p2782
aVfav
p2783
aVh n
p2784
aVpie
p2785
aV0.4
p2786
aV44 
p2787
aV3 r
p2788
aVrva
p2789
aV8 r
p2790
aVh w
p2791
aV68 
p2792
aVyed
p2793
aVac 
p2794
aVw d
p2795
aVsme
p2796
aVo y
p2797
aV,10
p2798
aVnez
p2799
aVmas
p2800
aVsmi
p2801
aV91 
p2802
aVp g
p2803
aVerb
p2804
aVhtl
p2805
aVpeo
p2806
aVn 5
p2807
aV81 
p2808
aV 7-
p2809
aV10-
p2810
aVuan
p2811
aVlam
p2812
aVhn 
p2813
aV0.7
p2814
aV1,2
p2815
aVols
p2816
aV,30
p2817
aV-1 
p2818
aV53 
p2819
aV,40
p2820
aVw l
p2821
aVw o
p2822
aVfy 
p2823
aVpic
p2824
aV 54
p2825
aV ot
p2826
aV4.7
p2827
aV5.8
p2828
aVarv
p2829
aVriz
p2830
aVavy
p2831
aV1,6
p2832
aVe 8
p2833
aV20,
p2834
aVimb
p2835
aVti 
p2836
aVjoh
p2837
aVr-t
p2838
aVy's
p2839
aV3/8
p2840
aVwoo
p2841
aV64 
p2842
aVyal
p2843
aVrar
p2844
aVxpi
p2845
aVfea
p2846
aV 57
p2847
aV21.
p2848
aVezu
p2849
aVrba
p2850
aV41 
p2851
aVocu
p2852
aVm n
p2853
aVrla
p2854
aVoro
p2855
aV0.0
p2856
aV6 a
p2857
aVka 
p2858
aV22.
p2859
aVreo
p2860
aVgna
p2861
aV5.2
p2862
aV25.
p2863
aVo u
p2864
aVrle
p2865
aV72 
p2866
aV101
p2867
aVosu
p2868
aV 85
p2869
aVrcu
p2870
aVhut
p2871
aVhma
p2872
aV43 
p2873
aV-ta
p2874
aVzue
p2875
aVtun
p2876
aV,20
p2877
aV36 
p2878
aV5.7
p2879
aV 1/
p2880
aV1,8
p2881
aVte-
p2882
aVedo
p2883
aV990
p2884
aV99 
p2885
aV197
p2886
aVg 4
p2887
aVelt
p2888
aVlk 
p2889
aVaye
p2890
aV4.4
p2891
aVeor
p2892
aVthu
p2893
aVlou
p2894
aV m-
p2895
aVvil
p2896
aV4.3
p2897
aVlux
p2898
aV24.
p2899
aV78 
p2900
aVoki
p2901
aV2 r
p2902
aV5.6
p2903
aVw t
p2904
aV56 
p2905
aVoal
p2906
aV3.4
p2907
aV0.6
p2908
aV 72
p2909
aV 73
p2910
aV49 
p2911
aVegr
p2912
aVids
p2913
aVupt
p2914
aVoge
p2915
aVy 5
p2916
aVlvi
p2917
aVhos
p2918
aVn 4
p2919
aV6 e
p2920
aVo h
p2921
aVh k
p2922
aV66 
p2923
aVcyc
p2924
aV. w
p2925
aV30,
p2926
aVrej
p2927
aVx b
p2928
aVhug
p2929
aVcir
p2930
aVzin
p2931
aV6.2
p2932
aVycl
p2933
aVdua
p2934
aV4 r
p2935
aV 58
p2936
aVe 0
p2937
aVco-
p2938
aVkan
p2939
aVool
p2940
aV900
p2941
aVsyn
p2942
aV23.
p2943
aV93 
p2944
aV.l 
p2945
aVc n
p2946
aVhat
p2947
aV9.5
p2948
aV47 
p2949
aV8 s
p2950
aV p 
p2951
aV a-
p2952
aVryi
p2953
aV5.3
p2954
aV2,5
p2955
aV1/8
p2956
aV-re
p2957
aVrys
p2958
aVogy
p2959
aV54 
p2960
aVeje
p2961
aVoya
p2962
aVbto
p2963
aVuxe
p2964
aV 56
p2965
aVbes
p2966
aVung
p2967
aV 68
p2968
aVk 1
p2969
aVaps
p2970
aVr-a
p2971
aVsm 
p2972
aVvor
p2973
aVobs
p2974
aV ah
p2975
aV0.9
p2976
aVocc
p2977
aV,70
p2978
aV57 
p2979
aVg 7
p2980
aV12,
p2981
aVauc
p2982
aVbos
p2983
aV6.0
p2984
aV48 
p2985
aV4.9
p2986
aVe-f
p2987
aVpip
p2988
aV77 
p2989
aV25,
p2990
aVuer
p2991
aVckl
p2992
aV6.7
p2993
aV40,
p2994
aVigg
p2995
aVsuf
p2996
aV2,4
p2997
aV1,7
p2998
aV7 e
p2999
aV7.2
p3000
a.