(lp0
Ving 
p1
aVaid 
p2
aV sai
p3
aVsaid
p4
aVion 
p5
aVtion
p6
aV mln
p7
aVmln 
p8
aVent 
p9
aV com
p10
aVment
p11
aV pro
p12
aV dlr
p13
aVted 
p14
aVatio
p15
aVdlrs
p16
aVlrs 
p17
aVuter
p18
aV pct
p19
aVpct 
p20
aV reu
p21
aVeute
p22
aVreut
p23
aV vs 
p24
aVers 
p25
aV con
p26
aVcomp
p27
aV,000
p28
aV000 
p29
aVyear
p30
aVcts 
p31
aV 198
p32
aV inc
p33
aVbank
p34
aVn dl
p35
aV mar
p36
aV ban
p37
aV yea
p38
aVear 
p39
aVport
p40
aVies 
p41
aVate 
p42
aVs co
p43
aVs re
p44
aV sha
p45
aV bil
p46
aVs sa
p47
aVshar
p48
aV pri
p49
aVbill
p50
aVting
p51
aVd re
p52
aVons 
p53
aVilli
p54
aVompa
p55
aV exp
p56
aVary 
p57
aVhare
p58
aV cts
p59
aVould
p60
aVuld 
p61
aVinte
p62
aVions
p63
aVding
p64
aVlion
p65
aVllio
p66
aVcomm
p67
aVnter
p68
aV int
p69
aV off
p70
aVsed 
p71
aV tra
p72
aV sta
p73
aVres 
p74
aV res
p75
aVln d
p76
aVmpan
p77
aVed s
p78
aVter 
p79
aVany 
p80
aV pre
p81
aVemen
p82
aVmark
p83
aVnce 
p84
aVd co
p85
aVive 
p86
aVer s
p87
aVank 
p88
aVast 
p89
aVs in
p90
aVial 
p91
aVe co
p92
aV wou
p93
aVwoul
p94
aVred 
p95
aVrate
p96
aVnts 
p97
aV los
p98
aVest 
p99
aVpany
p100
aVces 
p101
aVs pr
p102
aV cou
p103
aVcial
p104
aVnal 
p105
aVover
p106
aVble 
p107
aVloss
p108
aVoss 
p109
aV net
p110
aVes s
p111
aVpric
p112
aVtrad
p113
aVnet 
p114
aV cor
p115
aV u.s
p116
aVrice
p117
aVu.s.
p118
aVon s
p119
aVity 
p120
aVded 
p121
aVtes 
p122
aVarke
p123
aVned 
p124
aVctio
p125
aV.s. 
p126
aVonal
p127
aVsion
p128
aVrati
p129
aVrket
p130
aVcorp
p131
aVt co
p132
aV for
p133
aVper 
p134
aVnati
p135
aV per
p136
aVed c
p137
aV mon
p138
aV rep
p139
aV sto
p140
aV0 ml
p141
aVance
p142
aVrodu
p143
aVoduc
p144
aVday 
p145
aV rec
p146
aVade 
p147
aVount
p148
aV gro
p149
aVange
p150
aVng c
p151
aViona
p152
aVone 
p153
aVrs s
p154
aV rat
p155
aVrade
p156
aVral 
p157
aV1986
p158
aV ope
p159
aVe re
p160
aVoper
p161
aVreas
p162
aV ind
p163
aVcont
p164
aVprod
p165
aVng s
p166
aV agr
p167
aV new
p168
aVtive
p169
aV sec
p170
aVs vs
p171
aVon d
p172
aVuary
p173
aVated
p174
aVed p
p175
aVffer
p176
aVates
p177
aVd pr
p178
aV rev
p179
aVchan
p180
aV deb
p181
aV986 
p182
aVd ma
p183
aV par
p184
aVes c
p185
aVort 
p186
aVoffe
p187
aVcoun
p188
aVe pr
p189
aVstat
p190
aVlast
p191
aVess 
p192
aVture
p193
aVs ne
p194
aVorp 
p195
aV las
p196
aV dec
p197
aVare 
p198
aVents
p199
aVning
p200
aVt re
p201
aVt pr
p202
aVable
p203
aVrest
p204
aV fin
p205
aVtock
p206
aVstoc
p207
aVice 
p208
aVring
p209
aVn co
p210
aVpart
p211
aVffic
p212
aVprof
p213
aV pla
p214
aVed r
p215
aVgree
p216
aVain 
p217
aVrofi
p218
aVold 
p219
aVid s
p220
aVpres
p221
aVpect
p222
aVn vs
p223
aVnes 
p224
aVster
p225
aVinc 
p226
aVofit
p227
aVhang
p228
aVfici
p229
aVties
p230
aV sal
p231
aV one
p232
aV exc
p233
aVfina
p234
aVmber
p235
aVduct
p236
aV fir
p237
aVight
p238
aVnew 
p239
aVed a
p240
aVght 
p241
aVitio
p242
aVure 
p243
aV dis
p244
aVerat
p245
aVy sa
p246
aVber 
p247
aV ear
p248
aVock 
p249
aVexpe
p250
aV man
p251
aV pay
p252
aVtal 
p253
aVprov
p254
aVtate
p255
aVase 
p256
aVn sa
p257
aVs ma
p258
aVsale
p259
aVeral
p260
aVine 
p261
aV cha
p262
aVket 
p263
aVvs 1
p264
aVshr 
p265
aVecon
p266
aVd de
p267
aV min
p268
aVagre
p269
aVs lo
p270
aVln v
p271
aVts s
p272
aVman 
p273
aVmont
p274
aVles 
p275
aV imp
p276
aVdebt
p277
aVling
p278
aVcent
p279
aVares
p280
aV ton
p281
aV wor
p282
aV als
p283
aVlso 
p284
aValso
p285
aVcurr
p286
aVn re
p287
aVt in
p288
aVng p
p289
aV inv
p290
aVnt s
p291
aVurre
p292
aVissu
p293
aV uni
p294
aVid r
p295
aV cur
p296
aV0 dl
p297
aV not
p298
aVrter
p299
aV oil
p300
aV iss
p301
aVd in
p302
aVtern
p303
aVease
p304
aVn st
p305
aVustr
p306
aVe de
p307
aVy re
p308
aVoffi
p309
aVd sa
p310
aVg co
p311
aVriti
p312
aV two
p313
aVcons
p314
aVings
p315
aVnanc
p316
aV sub
p317
aVngs 
p318
aVinan
p319
aVcrea
p320
aVrren
p321
aVfit 
p322
aVders
p323
aVarch
p324
aVts v
p325
aVfore
p326
aVclud
p327
aVmini
p328
aVon c
p329
aVe in
p330
aVd st
p331
aVand 
p332
aVblah
p333
aVther
p334
aVard 
p335
aVy co
p336
aVitie
p337
aVtmen
p338
aViden
p339
aVled 
p340
aVoil 
p341
aVcted
p342
aVnge 
p343
aVrch 
p344
aV0,00
p345
aVs de
p346
aVs sh
p347
aVvest
p348
aVed d
p349
aVell 
p350
aVhold
p351
aVage 
p352
aVntin
p353
aVrese
p354
aVonne
p355
aVal s
p356
aVl co
p357
aVonth
p358
aVplan
p359
aVtere
p360
aV acc
p361
aVrts 
p362
aVes r
p363
aVices
p364
aVnote
p365
aVed t
p366
aVtwo 
p367
aVserv
p368
aV shr
p369
aVapan
p370
aVr co
p371
aVexpo
p372
aVxpec
p373
aVed m
p374
aVed f
p375
aVjapa
p376
aVend 
p377
aVking
p378
aVries
p379
aVembe
p380
aVely 
p381
aVid c
p382
aVunit
p383
aVlly 
p384
aVesti
p385
aVstan
p386
aVapri
p387
aVe ma
p388
aVpril
p389
aVt sa
p390
aVer c
p391
aVt ye
p392
aVced 
p393
aVmarc
p394
aVvern
p395
aVinve
p396
aVril 
p397
aV apr
p398
aVid a
p399
aVebt 
p400
aVe sa
p401
aVssue
p402
aVtonn
p403
aVr sh
p404
aVs ex
p405
aVpera
p406
aVtry 
p407
aVende
p408
aVsts 
p409
aVxpor
p410
aVher 
p411
aVside
p412
aVgove
p413
aVndin
p414
aVnmen
p415
aVures
p416
aVarte
p417
aV app
p418
aVon p
p419
aVarge
p420
aVals 
p421
aV jap
p422
aV gov
p423
aVicia
p424
aVsing
p425
aV sou
p426
aVncre
p427
aVors 
p428
aVrent
p429
aVnds 
p430
aVorts
p431
aVr sa
p432
aVstri
p433
aVincr
p434
aVses 
p435
aVonom
p436
aV add
p437
aVcono
p438
aVal c
p439
aVtly 
p440
aVnves
p441
aV eco
p442
aVterm
p443
aV5 ml
p444
aVnnes
p445
aVcord
p446
aVes a
p447
aVecte
p448
aVline
p449
aVweek
p450
aVucti
p451
aVenti
p452
aVnder
p453
aVines
p454
aVed b
p455
aV0 vs
p456
aVerna
p457
aVeres
p458
aVed l
p459
aVrepo
p460
aVnist
p461
aV qua
p462
aVnclu
p463
aVevel
p464
aVepor
p465
aVake 
p466
aVose 
p467
aVed 1
p468
aVrnme
p469
aVernm
p470
aVan s
p471
aVally
p472
aVredi
p473
aVinis
p474
aVise 
p475
aVindu
p476
aV cre
p477
aVndus
p478
aVdust
p479
aVrs c
p480
aV ass
p481
aVes i
p482
aVtake
p483
aV rea
p484
aV wee
p485
aVs se
p486
aVng a
p487
aVnomi
p488
aVr pr
p489
aV thr
p490
aVduce
p491
aVian 
p492
aVgrou
p493
aV dep
p494
aVrst 
p495
aVnks 
p496
aVfer 
p497
aVes p
p498
aV div
p499
aVder 
p500
aV end
p501
aVlate
p502
aVincl
p503
aVver 
p504
aV00 v
p505
aVr re
p506
aVed e
p507
aVurit
p508
aVfirs
p509
aVrenc
p510
aVprop
p511
aVirst
p512
aVreco
p513
aVtor 
p514
aV str
p515
aVanks
p516
aVters
p517
aVexch
p518
aVlati
p519
aVtors
p520
aVales
p521
aVts p
p522
aVquar
p523
aV jan
p524
aVearl
p525
aVuart
p526
aVans 
p527
aVommi
p528
aVecur
p529
aVsecu
p530
aVger 
p531
aVthre
p532
aVign 
p533
aVlude
p534
aVeeme
p535
aVn pr
p536
aVreig
p537
aV1987
p538
aV may
p539
aVeed 
p540
aVts n
p541
aVal b
p542
aVree 
p543
aVect 
p544
aVnt c
p545
aVedit
p546
aVng r
p547
aVxcha
p548
aVs wo
p549
aVmay 
p550
aV0 pc
p551
aVranc
p552
aVacti
p553
aVs ba
p554
aV00 d
p555
aVd se
p556
aVund 
p557
aVatin
p558
aVed i
p559
aVress
p560
aVrs r
p561
aVs pe
p562
aVes e
p563
aVord 
p564
aV co 
p565
aVroup
p566
aV feb
p567
aVrevi
p568
aVny s
p569
aVrica
p570
aVid p
p571
aVcal 
p572
aV out
p573
aV bla
p574
aVs 19
p575
aVcred
p576
aVmana
p577
aVreem
p578
aVeek 
p579
aVeven
p580
aVlar 
p581
aVrs p
p582
aVrnat
p583
aVeign
p584
aVssio
p585
aVanag
p586
aVecti
p587
aV lea
p588
aVars 
p589
aVer p
p590
aVanua
p591
aVjanu
p592
aVt de
p593
aVnuar
p594
aVolla
p595
aVbond
p596
aVets 
p597
aVrece
p598
aVever
p599
aVevs 
p600
aVrevs
p601
aVorei
p602
aVnage
p603
aVerve
p604
aVacqu
p605
aV ann
p606
aVomme
p607
aVs fi
p608
aVfebr
p609
aV nat
p610
aVal p
p611
aVt ma
p612
aVebru
p613
aVrman
p614
aV sho
p615
aVruar
p616
aVotal
p617
aVbrua
p618
aVtota
p619
aV loa
p620
aV1985
p621
aVoup 
p622
aVlder
p623
aV acq
p624
aVcuri
p625
aVhree
p626
aVstra
p627
aV bon
p628
aVcqui
p629
aVased
p630
aV987 
p631
aV tot
p632
aVh bl
p633
aVah b
p634
aVlah 
p635
aVicat
p636
aVdent
p637
aVl re
p638
aVough
p639
aVntra
p640
aVong 
p641
aVspec
p642
aVistr
p643
aVllar
p644
aV bas
p645
aVn ma
p646
aVontr
p647
aVdisc
p648
aVymen
p649
aVound
p650
aVes d
p651
aVener
p652
aVl pr
p653
aVctor
p654
aVloan
p655
aVid b
p656
aVond 
p657
aVd ex
p658
aVanci
p659
aVuntr
p660
aV ltd
p661
aVdoll
p662
aVved 
p663
aV red
p664
aV ris
p665
aVd ba
p666
aVonti
p667
aVimpo
p668
aVform
p669
aVmain
p670
aVes m
p671
aVng t
p672
aVdlr 
p673
aVower
p674
aVorte
p675
aVacco
p676
aVmpor
p677
aVill 
p678
aV fou
p679
aVs st
p680
aVe se
p681
aVt se
p682
aV0 re
p683
aVvide
p684
aVtain
p685
aVn in
p686
aVer a
p687
aV dol
p688
aVican
p689
aVng m
p690
aVommo
p691
aVsiti
p692
aVounc
p693
aVld r
p694
aVt lo
p695
aVon r
p696
aVrs a
p697
aVears
p698
aVdue 
p699
aVes t
p700
aVined
p701
aVct s
p702
aVnt p
p703
aVl ba
p704
aVtrie
p705
aVvs 2
p706
aVilit
p707
aV due
p708
aVrise
p709
aVness
p710
aV985 
p711
aVn de
p712
aVd fi
p713
aVy ma
p714
aVng d
p715
aVltd 
p716
aVstry
p717
aVgrow
p718
aV dea
p719
aV tak
p720
aVry s
p721
aVetin
p722
aViste
p723
aVon a
p724
aVvs l
p725
aVered
p726
aVvera
p727
aVits 
p728
aVsour
p729
aVed o
p730
aVes f
p731
aVious
p732
aVer r
p733
aV sup
p734
aV5 pc
p735
aVged 
p736
aVquir
p737
aVd ne
p738
aVsubs
p739
aVall 
p740
aVhigh
p741
aV spe
p742
aV ref
p743
aVeste
p744
aVln s
p745
aVves 
p746
aVland
p747
aV cen
p748
aV hig
p749
aVant 
p750
aV pos
p751
aVon f
p752
aV tol
p753
aVy in
p754
aVst y
p755
aVdes 
p756
aVs ca
p757
aVequi
p758
aVital
p759
aV mee
p760
aVd pa
p761
aVmeet
p762
aVncy 
p763
aVourc
p764
aVurce
p765
aVome 
p766
aVisio
p767
aVropo
p768
aV cap
p769
aV bra
p770
aVolde
p771
aVwest
p772
aVid e
p773
aVar s
p774
aVng f
p775
aVt st
p776
aVfour
p777
aVtoda
p778
aVoday
p779
aV tod
p780
aVal a
p781
aVead 
p782
aV hol
p783
aVusin
p784
aVrnin
p785
aVoint
p786
aVtold
p787
aVency
p788
aVrdin
p789
aVtand
p790
aVayme
p791
aVpaym
p792
aVson 
p793
aVctiv
p794
aVeric
p795
aV ins
p796
aVpare
p797
aV low
p798
aVed n
p799
aVllin
p800
aVer t
p801
aVcond
p802
aVal r
p803
aVfive
p804
aVamer
p805
aVier 
p806
aVote 
p807
aVtinu
p808
aVappr
p809
aVcoul
p810
aVtral
p811
aVths 
p812
aVdeal
p813
aV est
p814
aVng i
p815
aVo sa
p816
aVmate
p817
aVmeri
p818
aVunde
p819
aViati
p820
aVerin
p821
aVclos
p822
aVnt a
p823
aV00 m
p824
aVtend
p825
aV fiv
p826
aVtax 
p827
aV ser
p828
aVior 
p829
aVes l
p830
aV lon
p831
aVton 
p832
aV cas
p833
aVited
p834
aVnded
p835
aVued 
p836
aVpan 
p837
aVts c
p838
aV car
p839
aVon m
p840
aVe fi
p841
aVence
p842
aVes b
p843
aVical
p844
aVeuro
p845
aV pur
p846
aVuire
p847
aVopos
p848
aVp sa
p849
aVd la
p850
aVl in
p851
aVcess
p852
aVan c
p853
aVrly 
p854
aVditi
p855
aVmon 
p856
aVecor
p857
aVg pr
p858
aVosed
p859
aVworl
p860
aVared
p861
aVstic
p862
aVstor
p863
aVsign
p864
aVorld
p865
aV buy
p866
aVale 
p867
aVs al
p868
aVlowe
p869
aV ter
p870
aVrs 1
p871
aVime 
p872
aVid d
p873
aVnth 
p874
aVs ye
p875
aVe st
p876
aVe ex
p877
aVl sa
p878
aVunce
p879
aV def
p880
aVlity
p881
aVes 1
p882
aVng e
p883
aVrces
p884
aVc sa
p885
aVying
p886
aVppro
p887
aVng b
p888
aVific
p889
aVsue 
p890
aV fun
p891
aVid m
p892
aVg re
p893
aVstme
p894
aVship
p895
aVrcha
p896
aV gen
p897
aVicul
p898
aVrage
p899
aVnt r
p900
aV fra
p901
aVer m
p902
aVs pa
p903
aVwing
p904
aVearn
p905
aVresu
p906
aVts r
p907
aVcome
p908
aVordi
p909
aVr lo
p910
aV eur
p911
aVsupp
p912
aVllow
p913
aVal m
p914
aVact 
p915
aVid f
p916
aVepar
p917
aVdivi
p918
aVt ba
p919
aV gra
p920
aVe 19
p921
aVsure
p922
aV ros
p923
aV act
p924
aVly d
p925
aV bus
p926
aVour 
p927
aVresi
p928
aV und
p929
aV can
p930
aVce s
p931
aVr in
p932
aVs la
p933
aVsult
p934
aVinat
p935
aVmiss
p936
aV3 ml
p937
aVtran
p938
aVible
p939
aVrms 
p940
aVrovi
p941
aVtime
p942
aVfere
p943
aVchas
p944
aVhase
p945
aVct c
p946
aVmone
p947
aVng l
p948
aVativ
p949
aV2 ml
p950
aVven 
p951
aVer 1
p952
aVnera
p953
aV ame
p954
aV cal
p955
aVanal
p956
aV rai
p957
aVprev
p958
aVpmen
p959
aVs tr
p960
aV 10 
p961
aV ana
p962
aVrose
p963
aVdecl
p964
aVfran
p965
aVt fi
p966
aV pol
p967
aVe ba
p968
aVntri
p969
aVy pr
p970
aVcan 
p971
aVrope
p972
aVasur
p973
aVeasu
p974
aV spo
p975
aVs fo
p976
aV6 ml
p977
aVarli
p978
aVnc s
p979
aVsted
p980
aV00 r
p981
aVfirm
p982
aVwer 
p983
aV chi
p984
aVual 
p985
aVean 
p986
aVcall
p987
aV4 ml
p988
aVrted
p989
aVe mi
p990
aV sel
p991
aV see
p992
aV0 to
p993
aV mak
p994
aVised
p995
aVmmon
p996
aVnaly
p997
aVject
p998
aValys
p999
aVadin
p1000
aVtic 
p1001
aV tax
p1002
aVcing
p1003
aVvisi
p1004
aVn ba
p1005
aV six
p1006
aV1 ml
p1007
aVtial
p1008
aVvs 3
p1009
aVfund
p1010
aV lat
p1011
aVerio
p1012
aVrove
p1013
aVs to
p1014
aVrld 
p1015
aVissi
p1016
aVt ex
p1017
aVleve
p1018
aVimat
p1019
aVly a
p1020
aVeser
p1021
aVet p
p1022
aVater
p1023
aVendi
p1024
aVerti
p1025
aVlect
p1026
aVly s
p1027
aVunt 
p1028
aV reg
p1029
aVeduc
p1030
aVt ra
p1031
aVrazi
p1032
aV8 ml
p1033
aVlyst
p1034
aVlose
p1035
aVurch
p1036
aVervi
p1037
aVcana
p1038
aVsent
p1039
aVvice
p1040
aVld s
p1041
aVlead
p1042
aVgene
p1043
aVrain
p1044
aVesul
p1045
aV lev
p1046
aVbraz
p1047
aVazil
p1048
aVn to
p1049
aVe su
p1050
aVn ex
p1051
aV7 ml
p1052
aVpita
p1053
aVpurc
p1054
aVdera
p1055
aV stg
p1056
aV mer
p1057
aVels 
p1058
aVboar
p1059
aVstg 
p1060
aVg sh
p1061
aVer b
p1062
aVoard
p1063
aVid t
p1064
aVredu
p1065
aVtati
p1066
aVal i
p1067
aVs 1.
p1068
aVt mo
p1069
aV bar
p1070
aValle
p1071
aVsell
p1072
aVed w
p1073
aVer d
p1074
aVr ne
p1075
aVn sh
p1076
aVestm
p1077
aV00 t
p1078
aVmerc
p1079
aVrp s
p1080
aVposi
p1081
aVes w
p1082
aVtrol
p1083
aVese 
p1084
aVpose
p1085
aVsine
p1086
aVcapi
p1087
aVinue
p1088
aVbusi
p1089
aVlier
p1090
aVapit
p1091
aVer e
p1092
aVnese
p1093
aV fac
p1094
aVpoli
p1095
aV dev
p1096
aVg in
p1097
aVstim
p1098
aV sin
p1099
aVt pa
p1100
aVanad
p1101
aVials
p1102
aVreta
p1103
aVulat
p1104
aVs di
p1105
aVeeti
p1106
aV ste
p1107
aVowin
p1108
aVon b
p1109
aVlow 
p1110
aVss 1
p1111
aV boa
p1112
aVfect
p1113
aV whe
p1114
aV.5 m
p1115
aVns s
p1116
aVst s
p1117
aVide 
p1118
aVroun
p1119
aVude 
p1120
aVte s
p1121
aVon t
p1122
aVects
p1123
aVon i
p1124
aV wes
p1125
aV tim
p1126
aV rel
p1127
aVd wo
p1128
aVet l
p1129
aVperi
p1130
aVseve
p1131
aV far
p1132
aV hel
p1133
aVvers
p1134
aVmmer
p1135
aV amo
p1136
aVdded
p1137
aVadde
p1138
aVitte
p1139
aVradi
p1140
aVesid
p1141
aV eff
p1142
aV9 ml
p1143
aVffec
p1144
aVviou
p1145
aVsix 
p1146
aVs su
p1147
aVbili
p1148
aVrogr
p1149
aVprog
p1150
aVdit 
p1151
aVrans
p1152
aVrth 
p1153
aV bro
p1154
aVince
p1155
aVosit
p1156
aV sur
p1157
aVrant
p1158
aVer n
p1159
aVanes
p1160
aVentr
p1161
aVe pa
p1162
aVcult
p1163
aVart 
p1164
aV rem
p1165
aV maj
p1166
aVn ye
p1167
aVpoin
p1168
aVney 
p1169
aVe tr
p1170
aVs fe
p1171
aVlong
p1172
aVmajo
p1173
aV sev
p1174
aVajor
p1175
aVd su
p1176
aVire 
p1177
aVeat 
p1178
aV ext
p1179
aVarni
p1180
aV fed
p1181
aVd ac
p1182
aVrlie
p1183
aVched
p1184
aVid i
p1185
aVspok
p1186
aVous 
p1187
aVpoke
p1188
aV tre
p1189
aV bri
p1190
aVmpar
p1191
aVvent
p1192
aVessi
p1193
aViate
p1194
aVash 
p1195
aVomic
p1196
aVnt d
p1197
aVeld 
p1198
aVker 
p1199
aVins 
p1200
aVd me
p1201
aV set
p1202
aVpay 
p1203
aVs op
p1204
aVevio
p1205
aVy de
p1206
aVpane
p1207
aV all
p1208
aVptio
p1209
aVon l
p1210
aVays 
p1211
aVnt b
p1212
aVost 
p1213
aVy di
p1214
aVon e
p1215
aVpend
p1216
aVng o
p1217
aVncia
p1218
aVce c
p1219
aVtima
p1220
aVt we
p1221
aVasse
p1222
aVly r
p1223
aV del
p1224
aVkers
p1225
aVal d
p1226
aVokes
p1227
aV cos
p1228
aVhing
p1229
aVmed 
p1230
aVorat
p1231
aVe ne
p1232
aVar e
p1233
aVract
p1234
aVork 
p1235
aVmmit
p1236
aVving
p1237
aVed g
p1238
aVdeve
p1239
aVuse 
p1240
aVr de
p1241
aVudes
p1242
aV 15 
p1243
aVmic 
p1244
aVust 
p1245
aVsman
p1246
aVstem
p1247
aVues 
p1248
aV ret
p1249
aVvelo
p1250
aVelop
p1251
aVcost
p1252
aVts a
p1253
aV sig
p1254
aVwork
p1255
aV4 pc
p1256
aVbase
p1257
aVcash
p1258
aVe ra
p1259
aVe ca
p1260
aVgain
p1261
aVmade
p1262
aVentu
p1263
aVeal 
p1264
aVmple
p1265
aV cut
p1266
aVern 
p1267
aVthin
p1268
aV sen
p1269
aVs 1,
p1270
aVd sh
p1271
aV mea
p1272
aV clo
p1273
aV shi
p1274
aVed u
p1275
aVouth
p1276
aV 30 
p1277
aVtrat
p1278
aVerag
p1279
aVrs d
p1280
aVns c
p1281
aVtary
p1282
aVst c
p1283
aVonsi
p1284
aVdece
p1285
aVisit
p1286
aVr 19
p1287
aVd lo
p1288
aV mad
p1289
aVctur
p1290
aV hea
p1291
aVe sh
p1292
aVclin
p1293
aVfall
p1294
aVtter
p1295
aVesen
p1296
aVs un
p1297
aVrowt
p1298
aVenta
p1299
aVator
p1300
aVowth
p1301
aVes o
p1302
aVmitt
p1303
aVd to
p1304
aVcate
p1305
aVset 
p1306
aVer o
p1307
aV gai
p1308
aV 31 
p1309
aVwth 
p1310
aVmina
p1311
aVrs f
p1312
aVecem
p1313
aVyste
p1314
aVsyst
p1315
aVst r
p1316
aVcemb
p1317
aVtrea
p1318
aVompl
p1319
aV ...
p1320
aVy st
p1321
aVorth
p1322
aVe ye
p1323
aVld c
p1324
aVget 
p1325
aVivid
p1326
aVanno
p1327
aVehol
p1328
aV8 pc
p1329
aVplus
p1330
aVsout
p1331
aV day
p1332
aV lar
p1333
aVrs t
p1334
aVreho
p1335
aVte c
p1336
aV2 pc
p1337
aVntly
p1338
aVd di
p1339
aVecto
p1340
aVish 
p1341
aVng 1
p1342
aVubsi
p1343
aVd fo
p1344
aVbsid
p1345
aVle s
p1346
aVesma
p1347
aV sys
p1348
aVlarg
p1349
aVlike
p1350
aVy se
p1351
aVareh
p1352
aVmake
p1353
aVarly
p1354
aVs ac
p1355
aV... 
p1356
aVvalu
p1357
aV pac
p1358
aVdina
p1359
aV equ
p1360
aVnoun
p1361
aV mai
p1362
aV nor
p1363
aVecli
p1364
aVnths
p1365
aVnted
p1366
aVrs n
p1367
aVerge
p1368
aVied 
p1369
aVnces
p1370
aVr ma
p1371
aVkesm
p1372
aVd ca
p1373
aVal t
p1374
aVnced
p1375
aVesto
p1376
aVubli
p1377
aVrema
p1378
aVatur
p1379
aVnnou
p1380
aV ten
p1381
aVyen 
p1382
aVandi
p1383
aVr st
p1384
aVid w
p1385
aVconv
p1386
aVrvic
p1387
aVrs i
p1388
aV00,0
p1389
aVs 10
p1390
aVrior
p1391
aVe ap
p1392
aVrs v
p1393
aVshor
p1394
aVjor 
p1395
aVhed 
p1396
aVntur
p1397
aVpubl
p1398
aVry c
p1399
aV5,00
p1400
aVatem
p1401
aV thi
p1402
aVgenc
p1403
aVreed
p1404
aV use
p1405
aVdefi
p1406
aVne m
p1407
aVcati
p1408
aV sol
p1409
aVal e
p1410
aVs u.
p1411
aVrect
p1412
aVnt f
p1413
aVinst
p1414
aVid l
p1415
aV 20 
p1416
aVer i
p1417
aVre c
p1418
aVt 19
p1419
aVfact
p1420
aVer f
p1421
aV poi
p1422
aVnate
p1423
aVst m
p1424
aVindi
p1425
aVhous
p1426
aVne c
p1427
aVeder
p1428
aVd 19
p1429
aVoney
p1430
aVlus 
p1431
aVrial
p1432
aVs me
p1433
aVerma
p1434
aVuisi
p1435
aVriod
p1436
aVstru
p1437
aVntro
p1438
aVly c
p1439
aVs po
p1440
aVn no
p1441
aVteme
p1442
aVconc
p1443
aVd ap
p1444
aVgeme
p1445
aVdepa
p1446
aV fel
p1447
aVes g
p1448
aVd bo
p1449
aV yen
p1450
aVrais
p1451
aVct p
p1452
aVd le
p1453
aVal f
p1454
aVanti
p1455
aVartm
p1456
aVrtme
p1457
aV hou
p1458
aVint 
p1459
aVothe
p1460
aVgram
p1461
aVked 
p1462
aVil 1
p1463
aVpani
p1464
aVrequ
p1465
aVhowe
p1466
aVs ta
p1467
aVarti
p1468
aVogra
p1469
aVe la
p1470
aVse s
p1471
aVt su
p1472
aVlled
p1473
aVs li
p1474
aVtrac
p1475
aVrs b
p1476
aVinal
p1477
aVerm 
p1478
aVutio
p1479
aV dom
p1480
aV mor
p1481
aV fal
p1482
aV non
p1483
aVcert
p1484
aVurop
p1485
aVonve
p1486
aV.3 m
p1487
aVsidi
p1488
aVgan 
p1489
aVt un
p1490
aVquis
p1491
aVld p
p1492
aVield
p1493
aVg ma
p1494
aVood 
p1495
aVinin
p1496
aVldin
p1497
aVrs e
p1498
aVe mo
p1499
aVerci
p1500
aVfell
p1501
aVkets
p1502
aV.1 m
p1503
aVoan 
p1504
aVmmis
p1505
aVa sa
p1506
aVan a
p1507
aVe fo
p1508
aVst p
p1509
aV inf
p1510
aVtabl
p1511
aV mat
p1512
aV wit
p1513
aV war
p1514
aVeigh
p1515
aVput 
p1516
aVfede
p1517
aV fre
p1518
aVce p
p1519
aV00 s
p1520
aVsis 
p1521
aVchin
p1522
aVd tr
p1523
aV 199
p1524
aVturn
p1525
aVzil 
p1526
aVt ca
p1527
aV req
p1528
aVde s
p1529
aVomes
p1530
aVught
p1531
aVaddi
p1532
aV val
p1533
aV sea
p1534
aVges 
p1535
aVouts
p1536
aVt to
p1537
aVthou
p1538
aVnd s
p1539
aVchar
p1540
aVtruc
p1541
aVmerg
p1542
aVanie
p1543
aVetar
p1544
aVorma
p1545
aVrs m
p1546
aVn se
p1547
aVls s
p1548
aV1,00
p1549
aVdend
p1550
aVts f
p1551
aVvs 4
p1552
aVnver
p1553
aVolic
p1554
aVysts
p1555
aVan d
p1556
aVet s
p1557
aVe di
p1558
aV.2 m
p1559
aV giv
p1560
aVrves
p1561
aVannu
p1562
aVrge 
p1563
aVrs l
p1564
aVwith
p1565
aV5 bi
p1566
aVt ne
p1567
aV 100
p1568
aVelec
p1569
aVnt t
p1570
aV fig
p1571
aVecen
p1572
aVvs p
p1573
aVsinc
p1574
aVwrit
p1575
aVhort
p1576
aVct r
p1577
aVrrow
p1578
aVheat
p1579
aV tal
p1580
aVs si
p1581
aVtiat
p1582
aV att
p1583
aVprio
p1584
aV.6 m
p1585
aVemai
p1586
aVonsu
p1587
aV neg
p1588
aVason
p1589
aVs so
p1590
aVs no
p1591
aV fee
p1592
aVs gr
p1593
aVd un
p1594
aVems 
p1595
aVmine
p1596
aV.4 m
p1597
aVproc
p1598
aVply 
p1599
aVomin
p1600
aV dem
p1601
aVext 
p1602
aVery 
p1603
aVs ja
p1604
aVnt m
p1605
aVr pa
p1606
aVturi
p1607
aVreat
p1608
aVd al
p1609
aVtalk
p1610
aVdome
p1611
aVl ma
p1612
aVreve
p1613
aVce m
p1614
aVnit 
p1615
aVrity
p1616
aVager
p1617
aVry 1
p1618
aVne s
p1619
aV sug
p1620
aVln r
p1621
aVln n
p1622
aV lik
p1623
aVntia
p1624
aVd mo
p1625
aVnual
p1626
aVnite
p1627
aVer l
p1628
aVtee 
p1629
aVbasi
p1630
aVnnua
p1631
aVentl
p1632
aVaver
p1633
aVconf
p1634
aVt fo
p1635
aVon w
p1636
aVider
p1637
aV cer
p1638
aVst t
p1639
aVless
p1640
aV dat
p1641
aVy 19
p1642
aVfica
p1643
aVeet 
p1644
aVagri
p1645
aVts e
p1646
aVnies
p1647
aVct 1
p1648
aVso s
p1649
aVader
p1650
aVnext
p1651
aVury 
p1652
aVroce
p1653
aV sti
p1654
aVisti
p1655
aVread
p1656
aVs ag
p1657
aV fut
p1658
aVesse
p1659
aVotes
p1660
aVve c
p1661
aVes u
p1662
aVnt i
p1663
aVrang
p1664
aVr ba
p1665
aValia
p1666
aVndon
p1667
aV nex
p1668
aVe lo
p1669
aVd po
p1670
aVsoci
p1671
aV.8 m
p1672
aVid o
p1673
aVl de
p1674
aVoted
p1675
aVvert
p1676
aVd ra
p1677
aVeren
p1678
aV gas
p1679
aVfigu
p1680
aVutur
p1681
aVt qu
p1682
aVar r
p1683
aVrger
p1684
aVng n
p1685
aVleas
p1686
aVlls 
p1687
aVdire
p1688
aVfutu
p1689
aVresp
p1690
aV say
p1691
aVquot
p1692
aVabil
p1693
aVmoun
p1694
aV pub
p1695
aVirec
p1696
aVre s
p1697
aValue
p1698
aVld a
p1699
aVlant
p1700
aVd fe
p1701
aV.9 m
p1702
aVwell
p1703
aVente
p1704
aVprob
p1705
aVgure
p1706
aVigur
p1707
aVgric
p1708
aVge c
p1709
aVed 2
p1710
aVln t
p1711
aVerda
p1712
aVblic
p1713
aVeast
p1714
aVpeci
p1715
aV nin
p1716
aVaker
p1717
aVultu
p1718
aV quo
p1719
aVltur
p1720
aVeffe
p1721
aVse c
p1722
aVarou
p1723
aVterd
p1724
aVciat
p1725
aVct f
p1726
aVes n
p1727
aVs en
p1728
aVt sh
p1729
aV cro
p1730
aVricu
p1731
aV.7 m
p1732
aVowne
p1733
aVs of
p1734
aVl st
p1735
aVwed 
p1736
aVtron
p1737
aVmer 
p1738
aVts o
p1739
aVrs w
p1740
aVefer
p1741
aVory 
p1742
aVd op
p1743
aVd ag
p1744
aV.0 m
p1745
aVe wo
p1746
aVhrs 
p1747
aVlan 
p1748
aVmand
p1749
aValer
p1750
aVonds
p1751
aVused
p1752
aVstin
p1753
aVruct
p1754
aVd si
p1755
aVnsid
p1756
aV wel
p1757
aVd ta
p1758
aVward
p1759
aVs we
p1760
aVped 
p1761
aVrday
p1762
aVagem
p1763
aVng g
p1764
aVeale
p1765
aVferi
p1766
aVnine
p1767
aVnon-
p1768
aV des
p1769
aV aro
p1770
aV ave
p1771
aVts m
p1772
aVnk s
p1773
aVallo
p1774
aVar a
p1775
aVposa
p1776
aV ger
p1777
aVplet
p1778
aVcove
p1779
aVago 
p1780
aVcut 
p1781
aVdate
p1782
aVs an
p1783
aVt ge
p1784
aVd ja
p1785
aVriva
p1786
aVge r
p1787
aVosal
p1788
aV avg
p1789
aVhr l
p1790
aVlian
p1791
aVst g
p1792
aVotia
p1793
aV ove
p1794
aVccou
p1795
aVains
p1796
aVante
p1797
aVefic
p1798
aVbarr
p1799
aVwhea
p1800
aVay s
p1801
aVmedi
p1802
aVonce
p1803
aVet i
p1804
aVccor
p1805
aVners
p1806
aVite 
p1807
aVshow
p1808
aVnion
p1809
aVecei
p1810
aVsche
p1811
aVer w
p1812
aVisco
p1813
aVtent
p1814
aVcast
p1815
aVepre
p1816
aViod 
p1817
aVicit
p1818
aVfarm
p1819
aVdeci
p1820
aVavg 
p1821
aV mov
p1822
aVid n
p1823
aVle c
p1824
aVult 
p1825
aVove 
p1826
aVfull
p1827
aVribu
p1828
aV bel
p1829
aVchai
p1830
aV hal
p1831
aVgive
p1832
aVng w
p1833
aVtem 
p1834
aVnego
p1835
aVegot
p1836
aV0 ct
p1837
aVouse
p1838
aVmmen
p1839
aV-yea
p1840
aV lin
p1841
aVeman
p1842
aVgoti
p1843
aV100 
p1844
aVbuy 
p1845
aVse p
p1846
aVvg s
p1847
aVry a
p1848
aVmuni
p1849
aVmove
p1850
aV pet
p1851
aVrcia
p1852
aVtrib
p1853
aV dir
p1854
aVs du
p1855
aVshrs
p1856
aVgood
p1857
aVt la
p1858
aVte p
p1859
aVreal
p1860
aVt tr
p1861
aVg se
p1862
aV yes
p1863
aVram 
p1864
aVttee
p1865
aVaise
p1866
aVefin
p1867
aVt le
p1868
aVon o
p1869
aVs br
p1870
aVsset
p1871
aVucer
p1872
aVs mo
p1873
aVuppl
p1874
aVns a
p1875
aVr ye
p1876
aVamou
p1877
aVg de
p1878
aVgest
p1879
aVnue 
p1880
aVmany
p1881
aVjust
p1882
aVve p
p1883
aVnsum
p1884
aVetro
p1885
aVidia
p1886
aVdiar
p1887
aVibut
p1888
aVighe
p1889
aVakin
p1890
aVming
p1891
aVmmun
p1892
aValan
p1893
aVoans
p1894
aVs ch
p1895
aVstil
p1896
aVts t
p1897
aVe po
p1898
aVmest
p1899
aVugh 
p1900
aVeaso
p1901
aVnt e
p1902
aVdica
p1903
aVyest
p1904
aV bal
p1905
aVdema
p1906
aV goo
p1907
aVpora
p1908
aVts i
p1909
aVnch 
p1910
aVs th
p1911
aVgerm
p1912
aVants
p1913
aVs go
p1914
aVivat
p1915
aVommu
p1916
aVollo
p1917
aVit 1
p1918
aVs fa
p1919
aVsurp
p1920
aVrgan
p1921
aVr to
p1922
aVerms
p1923
aVstab
p1924
aV aut
p1925
aVd so
p1926
aV ful
p1927
aVs ad
p1928
aVorga
p1929
aVgold
p1930
aVal g
p1931
aVstar
p1932
aVn pa
p1933
aVarre
p1934
aVace 
p1935
aVs mi
p1936
aVanke
p1937
aVsses
p1938
aVseas
p1939
aVs ho
p1940
aVay a
p1941
aVd ch
p1942
aVikel
p1943
aVsury
p1944
aV adv
p1945
aVrks 
p1946
aVousl
p1947
aVnt l
p1948
aVusly
p1949
aVcipa
p1950
aVceiv
p1951
aVecom
p1952
aVutst
p1953
aVferr
p1954
aVner 
p1955
aVging
p1956
aVack 
p1957
aVfoll
p1958
aV flo
p1959
aVneed
p1960
aVvs 5
p1961
aV har
p1962
aVocia
p1963
aVrce 
p1964
aVt wo
p1965
aV nee
p1966
aVst w
p1967
aVoved
p1968
aVinco
p1969
aVd u.
p1970
aVrepa
p1971
aVar p
p1972
aVr ex
p1973
aVorro
p1974
aVlabl
p1975
aVtsta
p1976
aVina 
p1977
aVourt
p1978
aVrop 
p1979
aVhair
p1980
aVd te
p1981
aVagen
p1982
aVirma
p1983
aVe ct
p1984
aVarra
p1985
aVs ro
p1986
aVed h
p1987
aVrefe
p1988
aVdian
p1989
aVback
p1990
aVinde
p1991
aVtria
p1992
aV gol
p1993
aVd bu
p1994
aV tel
p1995
aVc co
p1996
aVs ra
p1997
aVkely
p1998
aVtill
p1999
aVlers
p2000
aVrran
p2001
aVetai
p2002
aVe of
p2003
aV eve
p2004
aV5 dl
p2005
aVview
p2006
aVd of
p2007
aVt fe
p2008
aVe bo
p2009
aVunio
p2010
aVlimi
p2011
aVty s
p2012
aVore 
p2013
aVgas 
p2014
aV ent
p2015
aVor c
p2016
aVs cu
p2017
aV own
p2018
aVar c
p2019
aVlks 
p2020
aVpriv
p2021
aVrd m
p2022
aV fol
p2023
aVecia
p2024
aVn fi
p2025
aValks
p2026
aVcour
p2027
aVan p
p2028
aVd ho
p2029
aVe ta
p2030
aV cit
p2031
aVch 1
p2032
aVe oi
p2033
aVil p
p2034
aVt gr
p2035
aV how
p2036
aVreac
p2037
aVs le
p2038
aVn ne
p2039
aVk sa
p2040
aVppor
p2041
aVairm
p2042
aVreca
p2043
aVaust
p2044
aV1/2 
p2045
aVler 
p2046
aVfee 
p2047
aVt bo
p2048
aVompe
p2049
aV gre
p2050
aVttle
p2051
aVd ad
p2052
aVnker
p2053
aVan b
p2054
aVn wo
p2055
aVudin
p2056
aV det
p2057
aVarks
p2058
aVne p
p2059
aVy ex
p2060
aVprin
p2061
aVway 
p2062
aVcula
p2063
aVucts
p2064
aVn ca
p2065
aVopti
p2066
aVcept
p2067
aVisin
p2068
aVaper
p2069
aV tar
p2070
aVmes 
p2071
aVr en
p2072
aVsly 
p2073
aV age
p2074
aV5 ct
p2075
aVmpro
p2076
aVbrit
p2077
aVludi
p2078
aV cru
p2079
aV 50 
p2080
aV.5 p
p2081
aVn tr
p2082
aVe ch
p2083
aVmers
p2084
aVasis
p2085
aVlic 
p2086
aVopen
p2087
aVg sa
p2088
aVes h
p2089
aVterv
p2090
aVndar
p2091
aV 25 
p2092
aVsume
p2093
aVe pc
p2094
aVre p
p2095
aVer g
p2096
aVse 1
p2097
aVd go
p2098
aVopme
p2099
aVo in
p2100
aVowed
p2101
aVe gr
p2102
aVlopm
p2103
aVping
p2104
aV3,00
p2105
aV ele
p2106
aVtric
p2107
aVor p
p2108
aVe so
p2109
aVacce
p2110
aV0 bi
p2111
aVpean
p2112
aVrrel
p2113
aViner
p2114
aVg st
p2115
aVln a
p2116
aV2,00
p2117
aVgher
p2118
aVaine
p2119
aVt ac
p2120
aVle p
p2121
aVan m
p2122
aVpetr
p2123
aVt ta
p2124
aViver
p2125
aVgres
p2126
aVica 
p2127
aV bid
p2128
aVuth 
p2129
aVgrai
p2130
aVs be
p2131
aVpon 
p2132
aVay r
p2133
aVestr
p2134
aVette
p2135
aV50 m
p2136
aVrred
p2137
aVly p
p2138
aVe un
p2139
aVk co
p2140
aVniti
p2141
aV aff
p2142
aVscal
p2143
aVd cu
p2144
aVe le
p2145
aVse a
p2146
aVair 
p2147
aVll s
p2148
aVopea
p2149
aVoldi
p2150
aVry r
p2151
aVd th
p2152
aV6,00
p2153
aVct l
p2154
aVees 
p2155
aVowev
p2156
aVntry
p2157
aVal o
p2158
aVrs o
p2159
aVweve
p2160
aVmemb
p2161
aVhalf
p2162
aVd an
p2163
aVe go
p2164
aVrali
p2165
aV 12 
p2166
aVceed
p2167
aV4,00
p2168
aVe ac
p2169
aVon 1
p2170
aVrt s
p2171
aVasso
p2172
aVddit
p2173
aVurin
p2174
aVssoc
p2175
aVown 
p2176
aVrela
p2177
aVvate
p2178
aVct i
p2179
aVct m
p2180
aVtant
p2181
aVs on
p2182
aV opt
p2183
aVct t
p2184
aVerta
p2185
aVss c
p2186
aVhelp
p2187
aVlans
p2188
aVnten
p2189
aVily 
p2190
aViary
p2191
aVugar
p2192
aVsets
p2193
aV dro
p2194
aVs 2,
p2195
aVld b
p2196
aVimpr
p2197
aVts d
p2198
aVln b
p2199
aVuce 
p2200
aVecre
p2201
aVbent
p2202
aVinit
p2203
aVd gr
p2204
aVns r
p2205
aV exe
p2206
aVstak
p2207
aVplac
p2208
aVovid
p2209
aVady 
p2210
aVns p
p2211
aVdjus
p2212
aVadju
p2213
aVon n
p2214
aVeady
p2215
aVpape
p2216
aV ec 
p2217
aVtele
p2218
aVives
p2219
aV por
p2220
aVnkin
p2221
aVcit 
p2222
aVy su
p2223
aVossi
p2224
aVitor
p2225
aVry p
p2226
aVired
p2227
aVelli
p2228
aVsuga
p2229
aVliti
p2230
aVng u
p2231
aVin s
p2232
aVrmin
p2233
aVs bu
p2234
aVd mi
p2235
aVermi
p2236
aVd br
p2237
aVvel 
p2238
aVurpl
p2239
aVsibl
p2240
aVrplu
p2241
aV beg
p2242
aVtail
p2243
aVnt o
p2244
aVlicy
p2245
aVs pl
p2246
aVncom
p2247
aVssib
p2248
aVl se
p2249
aV mem
p2250
aVseco
p2251
aVeive
p2252
aVdebe
p2253
aVposs
p2254
aVics 
p2255
aVd be
p2256
aVaila
p2257
aVeben
p2258
aV8,00
p2259
aVld m
p2260
aVet 1
p2261
aVe bi
p2262
aVe me
p2263
aVada 
p2264
aVal l
p2265
aVte a
p2266
aVle d
p2267
aVd ye
p2268
aVn 19
p2269
aVnd p
p2270
aVnary
p2271
aVuctu
p2272
aVorde
p2273
aVorec
p2274
aVsold
p2275
aV6 pc
p2276
aVregi
p2277
aVrigh
p2278
aVelie
p2279
aVods 
p2280
aVon g
p2281
aVunds
p2282
aVre r
p2283
aV fil
p2284
aVte f
p2285
aVtitu
p2286
aV cla
p2287
aV ran
p2288
aVsect
p2289
aVgar 
p2290
aVndic
p2291
aVecas
p2292
aVy tr
p2293
aVid g
p2294
aVle a
p2295
aVt si
p2296
aVtely
p2297
aVnove
p2298
aV7,00
p2299
aV tur
p2300
aV sch
p2301
aVndit
p2302
aVth a
p2303
aVd no
p2304
aVrude
p2305
aVlace
p2306
aVvely
p2307
aVe to
p2308
aVieve
p2309
aVr of
p2310
aVrow 
p2311
aVevis
p2312
aV-1/2
p2313
aVst a
p2314
aVicy 
p2315
aVe cu
p2316
aVed j
p2317
aVreso
p2318
aVs bo
p2319
aVivel
p2320
aVs as
p2321
aVspen
p2322
aVst f
p2323
aVipme
p2324
aV che
p2325
aVstro
p2326
aVansa
p2327
aVch 3
p2328
aVy ba
p2329
aValf 
p2330
aV eig
p2331
aVt ja
p2332
aVdiv 
p2333
aVexte
p2334
aVd we
p2335
aVd li
p2336
aVrges
p2337
aVr fi
p2338
aVct d
p2339
aVwned
p2340
aVdist
p2341
aVil s
p2342
aVss 2
p2343
aVmpet
p2344
aV.. .
p2345
aVe ag
p2346
aVesta
p2347
aVural
p2348
aVinar
p2349
aV air
p2350
aVomis
p2351
aVsal 
p2352
aVd en
p2353
aVh co
p2354
aVsist
p2355
aValli
p2356
aVl pa
p2357
aVts l
p2358
aVo co
p2359
aVrole
p2360
aVepte
p2361
aV adj
p2362
aVomy 
p2363
aVs 12
p2364
aVn fr
p2365
aVatte
p2366
aVs ap
p2367
aVck s
p2368
aVnada
p2369
aVderw
p2370
aV bac
p2371
aVal 1
p2372
aV fis
p2373
aVd fa
p2374
aV3 pc
p2375
aVnd c
p2376
aVadia
p2377
aVigne
p2378
aVrepr
p2379
aV met
p2380
aVune 
p2381
aVnged
p2382
aV2 ct
p2383
aVe te
p2384
aVlend
p2385
aVnomy
p2386
aVe bu
p2387
aVeach
p2388
aVd pl
p2389
aVuced
p2390
aVlete
p2391
aV aus
p2392
aV eas
p2393
aVrlin
p2394
aVelat
p2395
aVases
p2396
aVr se
p2397
aVan r
p2398
aVty c
p2399
aVn av
p2400
aVts 1
p2401
aVuild
p2402
aVthir
p2403
aVly t
p2404
aVvail
p2405
aVtest
p2406
aV she
p2407
aVpeti
p2408
aVncin
p2409
aVt th
p2410
aVlanc
p2411
aV ord
p2412
aVlts 
p2413
aVts b
p2414
aVeds 
p2415
aVs wa
p2416
aV sep
p2417
aVtifi
p2418
aV jun
p2419
aVco s
p2420
aVd ea
p2421
aV/8 p
p2422
aVerre
p2423
aVhird
p2424
aV dif
p2425
aVstit
p2426
aVy sh
p2427
aVdiff
p2428
aVanda
p2429
aVbala
p2430
aVd qu
p2431
aVorit
p2432
aVactu
p2433
aVigh 
p2434
aVen s
p2435
aVcies
p2436
aVpref
p2437
aVay c
p2438
aVuppo
p2439
aValth
p2440
aVt li
p2441
aVium 
p2442
aVct a
p2443
aVrpor
p2444
aVtart
p2445
aVy pa
p2446
aVeate
p2447
aVce a
p2448
aV den
p2449
aVd sp
p2450
aV6 re
p2451
aVout 
p2452
aV bor
p2453
aVovem
p2454
aVly f
p2455
aVan e
p2456
aV tru
p2457
aV pas
p2458
aV/4 p
p2459
aVancs
p2460
aV9,00
p2461
aVupon
p2462
aVinfl
p2463
aVvenu
p2464
aVrd a
p2465
aVenue
p2466
aVs 2.
p2467
aVce r
p2468
aVtura
p2469
aVid u
p2470
aVnadi
p2471
aV alt
p2472
aVtory
p2473
aVull 
p2474
aVr ea
p2475
aVs te
p2476
aVsued
p2477
aVjune
p2478
aVexcl
p2479
aVxclu
p2480
aVdown
p2481
aVyiel
p2482
aVle m
p2483
aVnt u
p2484
aVd on
p2485
aVt so
p2486
aV1 pc
p2487
aVry f
p2488
aVlue 
p2489
aVcoup
p2490
aVet e
p2491
aVnoth
p2492
aVpply
p2493
aVpact
p2494
aVnews
p2495
aVe ho
p2496
aVegat
p2497
aVyork
p2498
aVitiv
p2499
aVayin
p2500
aVnior
p2501
aVe si
p2502
aVpaci
p2503
aVensi
p2504
aVvs 6
p2505
aVew y
p2506
aVy fi
p2507
aVrong
p2508
aVdrop
p2509
aV yor
p2510
aVharg
p2511
aVd do
p2512
aVre d
p2513
aVerwr
p2514
aVeeds
p2515
aVsati
p2516
aVques
p2517
aVss s
p2518
aVncer
p2519
aVd im
p2520
aVrwri
p2521
aVhip 
p2522
aVpari
p2523
aVa co
p2524
aV2 bi
p2525
aVnd 1
p2526
aVirm 
p2527
aVic p
p2528
aVseni
p2529
aVst b
p2530
aVge s
p2531
aVay m
p2532
aVuing
p2533
aVcers
p2534
aVe li
p2535
aVempl
p2536
aVns m
p2537
aV rig
p2538
aVw yo
p2539
aVet c
p2540
aVs tw
p2541
aVntio
p2542
aVtibl
p2543
aV-ter
p2544
aV 200
p2545
aVnd d
p2546
aVrtai
p2547
aVhead
p2548
aVfits
p2549
aVethe
p2550
aVinci
p2551
aVnort
p2552
aVoble
p2553
aVteri
p2554
aVy ca
p2555
aVe ja
p2556
aVe im
p2557
aVr tr
p2558
aVld t
p2559
aVce i
p2560
aV ava
p2561
aVird 
p2562
aVple 
p2563
aVse f
p2564
aVt fa
p2565
aVults
p2566
aVitut
p2567
aVprim
p2568
aVor s
p2569
aVt al
p2570
aVlist
p2571
aView 
p2572
aVrve 
p2573
aVisca
p2574
aVy lo
p2575
aVce d
p2576
aVg ba
p2577
aVrder
p2578
aVnued
p2579
aVfice
p2580
aVetit
p2581
aVed 3
p2582
aVy ap
p2583
aVar f
p2584
aVl ex
p2585
aVshin
p2586
aVncs 
p2587
aVchem
p2588
aVgned
p2589
aVrmer
p2590
aV yie
p2591
aVval 
p2592
aVavai
p2593
aVcrud
p2594
aVtiti
p2595
aVfisc
p2596
aVploy
p2597
aV 10.
p2598
aVondi
p2599
aVy ne
p2600
aVcifi
p2601
aVcks 
p2602
aVcoff
p2603
aVit s
p2604
aVe u.
p2605
aVnger
p2606
aVegis
p2607
aVtage
p2608
aVse r
p2609
aVist 
p2610
aVan t
p2611
aVrtic
p2612
aVs im
p2613
aVenio
p2614
aVlowi
p2615
aV col
p2616
aV are
p2617
aVppin
p2618
aVry m
p2619
aVd 10
p2620
aVpens
p2621
aVatel
p2622
aVes 2
p2623
aV cof
p2624
aVorpo
p2625
aVlega
p2626
aVd is
p2627
aVilab
p2628
aVrite
p2629
aVarea
p2630
aV500 
p2631
aV0 ye
p2632
aVly e
p2633
aVad m
p2634
aV bou
p2635
aV boo
p2636
aV.50 
p2637
aVuota
p2638
aVt pe
p2639
aVffee
p2640
aVoutp
p2641
aVte 1
p2642
aVnerg
p2643
aVaris
p2644
aVfic 
p2645
aVve b
p2646
aVnk c
p2647
aVligh
p2648
aVil c
p2649
aVn cu
p2650
aVmist
p2651
aVmplo
p2652
aVombi
p2653
aVhoug
p2654
aVute 
p2655
aVheld
p2656
aVdon 
p2657
aVook 
p2658
aVl tr
p2659
aVsive
p2660
aVris 
p2661
aVregu
p2662
aVdays
p2663
aVgula
p2664
aVeas 
p2665
aV mid
p2666
aVuste
p2667
aVte r
p2668
aVrtib
p2669
aVtle 
p2670
aVic c
p2671
aVte d
p2672
aVlish
p2673
aVegul
p2674
aVs sp
p2675
aVe pe
p2676
aVe we
p2677
aVemic
p2678
aV00 b
p2679
aVs he
p2680
aVn la
p2681
aVppli
p2682
aVtica
p2683
aVark 
p2684
aV. ..
p2685
aVl ga
p2686
aVs us
p2687
aV ask
p2688
aVd tw
p2689
aVn su
p2690
aVaint
p2691
aVit c
p2692
aVns i
p2693
aVrobl
p2694
aVt ch
p2695
aVeria
p2696
aV law
p2697
aVet a
p2698
aVaran
p2699
aVnear
p2700
aVnsti
p2701
aVcorn
p2702
aV gua
p2703
aViled
p2704
aV eng
p2705
aVs do
p2706
aVache
p2707
aVills
p2708
aVe ad
p2709
aVtner
p2710
aVg fi
p2711
aVr ag
p2712
aVic s
p2713
aVy an
p2714
aVy al
p2715
aVutpu
p2716
aVs 11
p2717
aVs 15
p2718
aVtput
p2719
aVflat
p2720
aVanki
p2721
aVve s
p2722
aVondo
p2723
aVorti
p2724
aVnd m
p2725
aVry b
p2726
aVn br
p2727
aVumer
p2728
aVvs 7
p2729
aVblem
p2730
aV pap
p2731
aVd pu
p2732
aVergy
p2733
aVre a
p2734
aVudge
p2735
aV nea
p2736
aVlive
p2737
aVstre
p2738
aVssed
p2739
aVtd s
p2740
aVds s
p2741
aVs 3,
p2742
aVrds 
p2743
aVt te
p2744
aVcret
p2745
aVosts
p2746
aVitin
p2747
aVk re
p2748
aVrgy 
p2749
aV fai
p2750
aV ano
p2751
aVtanc
p2752
aVfaci
p2753
aVterl
p2754
aVonse
p2755
aVlond
p2756
aVcity
p2757
aVng h
p2758
aVrtne
p2759
aVtici
p2760
aVrowi
p2761
aVspon
p2762
aVhedu
p2763
aV mil
p2764
aVedul
p2765
aVs ea
p2766
aV 1.5
p2767
aV7 pc
p2768
aVt tw
p2769
aVde c
p2770
aVe al
p2771
aVtemp
p2772
aVunch
p2773
aVs cl
p2774
aVrust
p2775
aVrinc
p2776
aVen c
p2777
aVm co
p2778
aV len
p2779
aVin c
p2780
aVt di
p2781
aVn al
p2782
aVte m
p2783
aVjoin
p2784
aVovis
p2785
aVtrus
p2786
aVvise
p2787
aVvery
p2788
aVon y
p2789
aV wan
p2790
aVgati
p2791
aVid h
p2792
aVguar
p2793
aViced
p2794
aVe fu
p2795
aVzed 
p2796
aVg ex
p2797
aVilia
p2798
aVhori
p2799
aV8 bi
p2800
aVroje
p2801
aVerse
p2802
aVthor
p2803
aVs 20
p2804
aVde p
p2805
aV3 bi
p2806
aVt bu
p2807
aVuch 
p2808
aVly l
p2809
aVuest
p2810
aVanot
p2811
aVippi
p2812
aVathe
p2813
aV9 pc
p2814
aVextr
p2815
aVan g
p2816
aVojec
p2817
aVimit
p2818
aVproj
p2819
aVloca
p2820
aVce f
p2821
aV plc
p2822
aVa re
p2823
aV ven
p2824
aVlds 
p2825
aVrefi
p2826
aVp in
p2827
aVchie
p2828
aVartn
p2829
aVsept
p2830
aVct e
p2831
aV les
p2832
aV lim
p2833
aVn lo
p2834
aVnica
p2835
aVnall
p2836
aVrefl
p2837
aVly i
p2838
aVlrea
p2839
aVcili
p2840
aValre
p2841
aVn fo
p2842
aV 1,0
p2843
aV5 re
p2844
aVectr
p2845
aVntai
p2846
aVized
p2847
aVmuch
p2848
aVrmed
p2849
aV muc
p2850
aVexpl
p2851
aV adm
p2852
aVarne
p2853
aV alr
p2854
aVplc 
p2855
aVbjec
p2856
aVy fo
p2857
aVoupo
p2858
aViall
p2859
aVts w
p2860
aVn u.
p2861
aVame 
p2862
aVexce
p2863
aVs cr
p2864
aVld e
p2865
aVadmi
p2866
aVay 1
p2867
aVecis
p2868
aVforc
p2869
aVsecr
p2870
aVcarr
p2871
aVcuss
p2872
aVorn 
p2873
aVatis
p2874
aVs is
p2875
aVauth
p2876
aVeted
p2877
aVquit
p2878
aVer u
p2879
aVley 
p2880
aViscu
p2881
aV joi
p2882
aVqtr 
p2883
aVch 2
p2884
aVk in
p2885
aVe fa
p2886
aVte i
p2887
aV ene
p2888
aV4 bi
p2889
aVecut
p2890
aVg lo
p2891
aV emp
p2892
aVet r
p2893
aVl ye
p2894
aVwant
p2895
aVar t
p2896
aVutho
p2897
aVgrad
p2898
aVs 13
p2899
aVe an
p2900
aVd pe
p2901
aVscus
p2902
aVitic
p2903
aVe pl
p2904
aVg pa
p2905
aVflec
p2906
aVief 
p2907
aVefle
p2908
aVanne
p2909
aVxten
p2910
aVnsac
p2911
aVike 
p2912
aVumbe
p2913
aVoval
p2914
aVssur
p2915
aVpute
p2916
aV mig
p2917
aVer h
p2918
aVrisi
p2919
aVuati
p2920
aVrson
p2921
aVbeli
p2922
aVve m
p2923
aV ago
p2924
aVseek
p2925
aV ben
p2926
aVl fi
p2927
aVcrop
p2928
aVks s
p2929
aVt of
p2930
aVrven
p2931
aVappe
p2932
aV unc
p2933
aVln y
p2934
aVsact
p2935
aVr gr
p2936
aVar 1
p2937
aVespo
p2938
aVerce
p2939
aVs. c
p2940
aVasin
p2941
aVdito
p2942
aVrned
p2943
aVacil
p2944
aVmanu
p2945
aVmall
p2946
aVse t
p2947
aVroad
p2948
aVld i
p2949
aVnt w
p2950
aVan f
p2951
aV bud
p2952
aVints
p2953
aVlear
p2954
aVtabi
p2955
aVl 19
p2956
aVelp 
p2957
aVncip
p2958
aVn di
p2959
aVtech
p2960
aVews 
p2961
aVccep
p2962
aVt ap
p2963
aVharp
p2964
aVbudg
p2965
aVy of
p2966
aVst q
p2967
aVmeas
p2968
aVorta
p2969
aV sov
p2970
aVeque
p2971
aVaske
p2972
aVamen
p2973
aVil 2
p2974
aVge p
p2975
aVst d
p2976
aVly o
p2977
aVdget
p2978
aVy ad
p2979
aVt no
p2980
aVts g
p2981
aVll c
p2982
aVs ga
p2983
aVt u.
p2984
aVt po
p2985
aVrs y
p2986
aVreme
p2987
aVan i
p2988
aV wea
p2989
aVuran
p2990
aVn mo
p2991
aVbord
p2992
aVvene
p2993
aVy wo
p2994
aVizat
p2995
aV1 bi
p2996
aVn li
p2997
aV san
p2998
aVg ne
p2999
aVrill
p3000
a.