(lp0
V said
p1
aVsaid 
p2
aV mln 
p3
aVtion 
p4
aVation
p5
aV dlrs
p6
aVdlrs 
p7
aVment 
p8
aV pct 
p9
aVreute
p10
aVeuter
p11
aV reut
p12
aV comp
p13
aV,000 
p14
aVn dlr
p15
aV year
p16
aV bank
p17
aVyear 
p18
aV bill
p19
aV shar
p20
aVcompa
p21
aVshare
p22
aVting 
p23
aV cts 
p24
aVould 
p25
aVions 
p26
aVllion
p27
aVillio
p28
aVlion 
p29
aVbilli
p30
aVs sai
p31
aVding 
p32
aV inte
p33
aVmln d
p34
aVompan
p35
aVtions
p36
aVln dl
p37
aV comm
p38
aVinter
p39
aVement
p40
aVbank 
p41
aV mark
p42
aV woul
p43
aVwould
p44
aVmpany
p45
aVpany 
p46
aV loss
p47
aV pric
p48
aV trad
p49
aV net 
p50
aVprice
p51
aVction
p52
aVmarke
p53
aVu.s. 
p54
aVloss 
p55
aVarket
p56
aV u.s.
p57
aV0 mln
p58
aVroduc
p59
aVnatio
p60
aVional
p61
aVing c
p62
aV 1986
p63
aVprodu
p64
aVonal 
p65
aV prod
p66
aVs vs 
p67
aVated 
p68
aVuary 
p69
aV corp
p70
aV1986 
p71
aVing s
p72
aVtrade
p73
aVion d
p74
aVtiona
p75
aVcorp 
p76
aVcial 
p77
aV cont
p78
aV last
p79
aVents 
p80
aVlast 
p81
aVates 
p82
aVstock
p83
aVsion 
p84
aV stoc
p85
aVable 
p86
aV prof
p87
aVprofi
p88
aV rate
p89
aVn vs 
p90
aVrofit
p91
aVance 
p92
aVties 
p93
aVcount
p94
aV inc 
p95
aVchang
p96
aVaid s
p97
aVratio
p98
aVhange
p99
aVition
p100
aV stat
p101
aV expe
p102
aVhare 
p103
aVport 
p104
aV new 
p105
aV fina
p106
aVstate
p107
aVagree
p108
aVoffer
p109
aVrket 
p110
aV offe
p111
aVmln v
p112
aVln vs
p113
aV agre
p114
aV one 
p115
aVring 
p116
aV sale
p117
aVares 
p118
aV oper
p119
aVrade 
p120
aValso 
p121
aV also
p122
aV debt
p123
aVy sai
p124
aV0 dlr
p125
aVtock 
p126
aVcurre
p127
aV issu
p128
aVrate 
p129
aVoffic
p130
aV offi
p131
aVs com
p132
aVaid r
p133
aVings 
p134
aVtive 
p135
aVurren
p136
aVing p
p137
aVfinan
p138
aVling 
p139
aVinanc
p140
aVments
p141
aVs inc
p142
aV curr
p143
aVhares
p144
aVities
p145
aV cons
p146
aVtment
p147
aVs pro
p148
aVcted 
p149
aVts vs
p150
aV fore
p151
aV0,000
p152
aVarch 
p153
aVng co
p154
aVmonth
p155
aVcts v
p156
aVange 
p157
aVices 
p158
aVion s
p159
aVofit 
p160
aV note
p161
aVexpec
p162
aVxpect
p163
aVmber 
p164
aVjapan
p165
aVoduct
p166
aV oil 
p167
aV expo
p168
aV plan
p169
aVember
p170
aVed re
p171
aVries 
p172
aVapril
p173
aVon dl
p174
aVn sai
p175
aVders 
p176
aVpril 
p177
aV mont
p178
aV two 
p179
aVdebt 
p180
aVissue
p181
aV apri
p182
aVking 
p183
aVed co
p184
aVovern
p185
aVe com
p186
aVperat
p187
aV marc
p188
aV vs 1
p189
aV inve
p190
aV tonn
p191
aVmarch
p192
aVaid c
p193
aVcreas
p194
aVexpor
p195
aVxport
p196
aVtonne
p197
aVaid a
p198
aVeral 
p199
aVnment
p200
aVnding
p201
aVures 
p202
aVffici
p203
aVgover
p204
aV coun
p205
aVopera
p206
aVd reu
p207
aV japa
p208
aV gove
p209
aVid re
p210
aVent s
p211
aVt yea
p212
aVntere
p213
aVning 
p214
aVincre
p215
aV incr
p216
aVficia
p217
aVncrea
p218
aVorts 
p219
aVicial
p220
aVinves
p221
aVnvest
p222
aV5 mln
p223
aVecono
p224
aVconom
p225
aVected
p226
aVd com
p227
aV econ
p228
aVight 
p229
aV part
p230
aVerati
p231
aV0 vs 
p232
aVeport
p233
aV repo
p234
aVrepor
p235
aVerest
p236
aVrnmen
p237
aVvernm
p238
aVernme
p239
aVteres
p240
aVs net
p241
aV pres
p242
aVndust
p243
aVindus
p244
aVdustr
p245
aVnclud
p246
aVarter
p247
aVally 
p248
aVterna
p249
aV indu
p250
aVion c
p251
aVrease
p252
aVes co
p253
aVs reu
p254
aVnnes 
p255
aVuctio
p256
aV week
p257
aVonnes
p258
aVminis
p259
aV incl
p260
aVrest 
p261
aVinist
p262
aVinclu
p263
aV00 vs
p264
aVfirst
p265
aVports
p266
aVing a
p267
aV reco
p268
aV exch
p269
aVanks 
p270
aVales 
p271
aVirst 
p272
aVtors 
p273
aVs con
p274
aVbanks
p275
aVcommi
p276
aV mini
p277
aVers s
p278
aVquart
p279
aV per 
p280
aV grou
p281
aVclude
p282
aVuarte
p283
aV000 v
p284
aV firs
p285
aVrice 
p286
aV thre
p287
aVsing 
p288
aVxchan
p289
aVexcha
p290
aV 1987
p291
aV0 pct
p292
aVsecur
p293
aVrices
p294
aVters 
p295
aVgroup
p296
aVt sai
p297
aVsales
p298
aVr sai
p299
aVes sa
p300
aVcredi
p301
aVs los
p302
aV may 
p303
aV unit
p304
aVeemen
p305
aVgreem
p306
aVreeme
p307
aVernat
p308
aVreign
p309
aVssion
p310
aVredit
p311
aVrnati
p312
aV quar
p313
aVmanag
p314
aV00 dl
p315
aV cred
p316
aV secu
p317
aVffer 
p318
aVture 
p319
aVd sai
p320
aVt pro
p321
aV prop
p322
aVjanua
p323
aVanuar
p324
aVnuary
p325
aVany s
p326
aVaid p
p327
aVrevs 
p328
aV revs
p329
aVritie
p330
aVforei
p331
aVoreig
p332
aVing r
p333
aV janu
p334
aVeign 
p335
aVcomme
p336
aVruary
p337
aVfebru
p338
aVebrua
p339
aVbruar
p340
aVtotal
p341
aVrter 
p342
aV mana
p343
aVducti
p344
aV acqu
p345
aVntern
p346
aVthree
p347
aVecuri
p348
aVion p
p349
aVacqui
p350
aVts ne
p351
aVrs sa
p352
aVcurit
p353
aVroup 
p354
aVanage
p355
aVased 
p356
aV tota
p357
aV1987 
p358
aVe sai
p359
aV rece
p360
aVd pro
p361
aVlah b
p362
aVah bl
p363
aVh bla
p364
aV blah
p365
aVblah 
p366
aV 1985
p367
aVes re
p368
aV febr
p369
aVed pr
p370
aVrs re
p371
aVyment
p372
aV000 d
p373
aVer sh
p374
aVes in
p375
aVollar
p376
aV shr 
p377
aVs per
p378
aVdolla
p379
aVountr
p380
aVcontr
p381
aV loan
p382
aVrent 
p383
aVconti
p384
aVating
p385
aVted s
p386
aVontin
p387
aVaid b
p388
aV impo
p389
aVper s
p390
aVrrent
p391
aVer sa
p392
aV earl
p393
aVuriti
p394
aVcommo
p395
aV acco
p396
aV dlr 
p397
aVcts n
p398
aVonomi
p399
aV doll
p400
aVweek 
p401
aVcord 
p402
aVined 
p403
aVporte
p404
aVnanci
p405
aV ltd 
p406
aV due 
p407
aV1985 
p408
aVstry 
p409
aV vs l
p410
aVvs lo
p411
aV bond
p412
aVered 
p413
aV5 pct
p414
aV grow
p415
aVease 
p416
aVd con
p417
aVeting
p418
aVther 
p419
aVent c
p420
aVe pro
p421
aVtries
p422
aVmln s
p423
aV disc
p424
aV high
p425
aV subs
p426
aVal co
p427
aVing m
p428
aVsourc
p429
aVource
p430
aVision
p431
aVst ye
p432
aV meet
p433
aV cent
p434
aVed de
p435
aVs 198
p436
aVtoday
p437
aVed st
p438
aV toda
p439
aVrning
p440
aVhree 
p441
aV told
p442
aVtold 
p443
aVing d
p444
aVon co
p445
aVpayme
p446
aVaymen
p447
aVency 
p448
aVoday 
p449
aVpropo
p450
aVmport
p451
aVimpor
p452
aV four
p453
aV coul
p454
aVcould
p455
aVt com
p456
aVaid e
p457
aVstand
p458
aVident
p459
aVholde
p460
aV five
p461
aV nati
p462
aVing t
p463
aVsitio
p464
aVing f
p465
aVal ba
p466
aVntinu
p467
aVid co
p468
aV deal
p469
aV appr
p470
aVolder
p471
aVs sha
p472
aV rese
p473
aVpecte
p474
aVnded 
p475
aVllar 
p476
aVering
p477
aVast y
p478
aVny sa
p479
aVameri
p480
aVl ban
p481
aVd sta
p482
aVquire
p483
aVapan 
p484
aVropos
p485
aVd mar
p486
aVound 
p487
aVld re
p488
aVmeric
p489
aVerica
p490
aVosed 
p491
aVworld
p492
aVared 
p493
aV prov
p494
aVer co
p495
aVears 
p496
aVing i
p497
aVrecor
p498
aVlders
p499
aVecord
p500
aV take
p501
aVlity 
p502
aVrces 
p503
aVo sai
p504
aVying 
p505
aVappro
p506
aVent p
p507
aVlling
p508
aVrates
p509
aVonth 
p510
aVp sai
p511
aVng pr
p512
aVstmen
p513
aVotal 
p514
aVion r
p515
aVaid d
p516
aV hold
p517
aVordin
p518
aV euro
p519
aV resu
p520
aVssue 
p521
aVness 
p522
aV worl
p523
aVfive 
p524
aVtake 
p525
aVurces
p526
aVserve
p527
aVland 
p528
aV term
p529
aV supp
p530
aV3 mln
p531
aVprovi
p532
aV2 mln
p533
aVative
p534
aVion a
p535
aVaid m
p536
aVited 
p537
aV prev
p538
aVpment
p539
aVc sai
p540
aVed in
p541
aVible 
p542
aVaid f
p543
aVing e
p544
aV decl
p545
aVoduce
p546
aVeasur
p547
aV6 mln
p548
aVion f
p549
aV vs 2
p550
aVsted 
p551
aVing b
p552
aV mone
p553
aV earn
p554
aVlrs s
p555
aVditio
p556
aV4 mln
p557
aVs wou
p558
aV00 ml
p559
aVised 
p560
aVon st
p561
aV rose
p562
aVanaly
p563
aVdent 
p564
aVrted 
p565
aV anal
p566
aVounce
p567
aVtures
p568
aV fran
p569
aVinc s
p570
aVchase
p571
aV1 mln
p572
aV00 re
p573
aVrose 
p574
aVnalys
p575
aVrs co
p576
aVading
p577
aVng re
p578
aVorld 
p579
aVommon
p580
aVcing 
p581
aV0 ton
p582
aVent a
p583
aViatio
p584
aV tran
p585
aVlatio
p586
aVeserv
p587
aVican 
p588
aVnote 
p589
aVreser
p590
aV8 mln
p591
aVr sha
p592
aV divi
p593
aVline 
p594
aValyst
p595
aV paym
p596
aVing l
p597
aVurcha
p598
aVresul
p599
aVesult
p600
aVrise 
p601
aVbrazi
p602
aVfranc
p603
aVyears
p604
aVrazil
p605
aVended
p606
aVimate
p607
aV7 mln
p608
aV sour
p609
aVower 
p610
aVrchas
p611
aVpurch
p612
aVs pri
p613
aVces s
p614
aVboard
p615
aViness
p616
aV stg 
p617
aVount 
p618
aVence 
p619
aV redu
p620
aVprove
p621
aV000 r
p622
aVpct s
p623
aVsines
p624
aVt inc
p625
aVusine
p626
aVr pro
p627
aVcapit
p628
aVtinue
p629
aV rise
p630
aVmissi
p631
aVbusin
p632
aVion m
p633
aVpital
p634
aVmmon 
p635
aVorp s
p636
aVials 
p637
aVeetin
p638
aVowing
p639
aVility
p640
aVclose
p641
aVapita
p642
aVmeeti
p643
aVcanad
p644
aVwing 
p645
aV busi
p646
aV fund
p647
aVnese 
p648
aV amer
p649
aVn com
p650
aVaid t
p651
aV00 to
p652
aV sell
p653
aVoard 
p654
aVround
p655
aVestme
p656
aVvestm
p657
aVects 
p658
aV.5 ml
p659
aVreduc
p660
aVustri
p661
aVrican
p662
aVe con
p663
aVlier 
p664
aVrman 
p665
aV boar
p666
aVcome 
p667
aVnt co
p668
aVctive
p669
aVister
p670
aVts sa
p671
aV west
p672
aVdded 
p673
aVester
p674
aVon re
p675
aV9 mln
p676
aVadded
p677
aVffect
p678
aVgener
p679
aV chan
p680
aV braz
p681
aV adde
p682
aV leve
p683
aVvious
p684
aVposit
p685
aVprogr
p686
aV0 rev
p687
aVed ma
p688
aV six 
p689
aV gene
p690
aVneral
p691
aVlrs p
p692
aVpoint
p693
aV capi
p694
aVtrans
p695
aVunder
p696
aVmajor
p697
aVd exp
p698
aV seve
p699
aVedit 
p700
aVs yea
p701
aVng in
p702
aVresid
p703
aV prog
p704
aVarlie
p705
aVearli
p706
aVspoke
p707
aVeside
p708
aVital 
p709
aVactio
p710
aVenera
p711
aV majo
p712
aVompar
p713
aVicult
p714
aV spok
p715
aV cana
p716
aVcts p
p717
aVprevi
p718
aVer re
p719
aVrlier
p720
aVnomic
p721
aVrevio
p722
aVeviou
p723
aV poli
p724
aVption
p725
aVsiden
p726
aVoper 
p727
aVan sa
p728
aVal re
p729
aVon pr
p730
aVendin
p731
aVarnin
p732
aVncial
p733
aV unde
p734
aVpokes
p735
aV time
p736
aVoss 1
p737
aV lead
p738
aVtimat
p739
aVkers 
p740
aVdevel
p741
aVudes 
p742
aVaid i
p743
aVnance
p744
aVon sa
p745
aVvelop
p746
aVevelo
p747
aVg com
p748
aVent r
p749
aVster 
p750
aVanese
p751
aV4 pct
p752
aVancia
p753
aVd ban
p754
aVn stg
p755
aVlevel
p756
aV serv
p757
aVtende
p758
aV deve
p759
aV tax 
p760
aVnc sa
p761
aVommit
p762
aVntrie
p763
aVing o
p764
aVsale 
p765
aVcash 
p766
aVearni
p767
aVprese
p768
aVludes
p769
aVuntri
p770
aVestim
p771
aVnistr
p772
aVvisio
p773
aV cash
p774
aVpress
p775
aVmade 
p776
aVrage 
p777
aVnings
p778
aVear s
p779
aVissio
p780
aVtary 
p781
aV cost
p782
aVs exp
p783
aVical 
p784
aVommer
p785
aV firm
p786
aVrowth
p787
aVgrowt
p788
aVstima
p789
aVcompl
p790
aVcembe
p791
aVdecem
p792
aVresen
p793
aVecemb
p794
aVowth 
p795
aVsyste
p796
aVystem
p797
aV rest
p798
aVcentr
p799
aV gain
p800
aVdivid
p801
aV sign
p802
aVehold
p803
aVtime 
p804
aVsouth
p805
aV8 pct
p806
aVomic 
p807
aVpanes
p808
aVapane
p809
aVsubsi
p810
aV2 pct
p811
aVsman 
p812
aVerage
p813
aVector
p814
aV made
p815
aV syst
p816
aVesman
p817
aVntly 
p818
aVlower
p819
aVubsid
p820
aV vs 3
p821
aVe mar
p822
aVareho
p823
aVlarge
p824
aVts re
p825
aV late
p826
aVcials
p827
aVing 1
p828
aVbond 
p829
aV ... 
p830
aVrrenc
p831
aVservi
p832
aVarly 
p833
aVpresi
p834
aVl sai
p835
aVnounc
p836
aVn mar
p837
aV esti
p838
aVonths
p839
aVt rat
p840
aVnths 
p841
aVorted
p842
aVted c
p843
aVdecli
p844
aVeclin
p845
aVokesm
p846
aV lowe
p847
aVs res
p848
aV pay 
p849
aVfour 
p850
aV acti
p851
aVpprov
p852
aVnnoun
p853
aVannou
p854
aV dece
p855
aVrp sa
p856
aVe pri
p857
aVmmerc
p858
aV clos
p859
aVwest 
p860
aVervic
p861
aVes ex
p862
aVnced 
p863
aVnted 
p864
aVn pro
p865
aVniste
p866
aVmitte
p867
aV larg
p868
aVmon s
p869
aVrehol
p870
aVajor 
p871
aV00,00
p872
aVhareh
p873
aVustry
p874
aVesent
p875
aVal in
p876
aVt los
p877
aVpubli
p878
aVkesma
p879
aVlrs 1
p880
aVr shr
p881
aVperio
p882
aVentra
p883
aVpared
p884
aVnt sa
p885
aV purc
p886
aV5,000
p887
aVr los
p888
aVe 198
p889
aV rema
p890
aVtradi
p891
aVtain 
p892
aV conv
p893
aVr 198
p894
aVnt re
p895
aVs ban
p896
aVt con
p897
aVy com
p898
aVeriod
p899
aVet lo
p900
aVrdina
p901
aVepart
p902
aV000 t
p903
aVdepar
p904
aVviden
p905
aVtemen
p906
aVateme
p907
aVplus 
p908
aVs ope
p909
aV depa
p910
aVaid w
p911
aVtatem
p912
aVs pre
p913
aV anno
p914
aVgemen
p915
aVartme
p916
aVpartm
p917
aVer pr
p918
aVrtmen
p919
aVed se
p920
aVmpare
p921
aVentur
p922
aV peri
p923
aVconsi
p924
aVlled 
p925
aVverag
p926
aVrvice
p927
aVctor 
p928
aVe min
p929
aVstrat
p930
aV conc
p931
aVterm 
p932
aVaid l
p933
aVstic 
p934
aV yen 
p935
aVeurop
p936
aVreed 
p937
aVratin
p938
aVman s
p939
aV poin
p940
aV defi
p941
aVcatio
p942
aVes pr
p943
aVivide
p944
aVet pr
p945
aVconve
p946
aVn sha
p947
aVbsidi
p948
aVlding
p949
aVining
p950
aVpct c
p951
aV.3 ml
p952
aV sout
p953
aVted p
p954
aV long
p955
aVince 
p956
aVurope
p957
aVother
p958
aVkets 
p959
aVloan 
p960
aVommis
p961
aVmmiss
p962
aVisiti
p963
aVd pre
p964
aVl pro
p965
aVrogra
p966
aVnture
p967
aVoney 
p968
aVogram
p969
aVious 
p970
aVuisit
p971
aVquisi
p972
aV spec
p973
aV rais
p974
aVts pr
p975
aVcline
p976
aV.1 ml
p977
aVfeder
p978
aVedera
p979
aVradin
p980
aVazil 
p981
aVes ma
p982
aV make
p983
aVender
p984
aV fall
p985
aVcquis
p986
aVnet l
p987
aVeven 
p988
aVion e
p989
aVandin
p990
aV requ
p991
aV work
p992
aVs tra
p993
aVs u.s
p994
aVion t
p995
aV ship
p996
aVestor
p997
aVmoney
p998
aVeased
p999
aVfell 
p1000
aV addi
p1001
aVtate 
p1002
aVgreed
p1003
aVt pri
p1004
aVvesto
p1005
aVlysts
p1006
aVear e
p1007
aV outs
p1008
aV inst
p1009
aVng ma
p1010
aVution
p1011
aVrkets
p1012
aV shor
p1013
aVysts 
p1014
aV fell
p1015
aVidend
p1016
aVtract
p1017
aVetary
p1018
aVecent
p1019
aV asse
p1020
aVrecen
p1021
aVbilit
p1022
aV.2 ml
p1023
aV vs p
p1024
aVvs pr
p1025
aVntral
p1026
aVs int
p1027
aV with
p1028
aVril 1
p1029
aVlrs v
p1030
aVr net
p1031
aVly re
p1032
aVshort
p1033
aVers r
p1034
aV5 bil
p1035
aVover 
p1036
aVconsu
p1037
aVd pri
p1038
aVmerge
p1039
aVemain
p1040
aVlrs c
p1041
aVprior
p1042
aVtial 
p1043
aVever 
p1044
aV prio
p1045
aVmmitt
p1046
aVion i
p1047
aVremai
p1048
aV.6 ml
p1049
aVt mon
p1050
aV1,000
p1051
aVsince
p1052
aVent b
p1053
aVcquir
p1054
aVct co
p1055
aVrior 
p1056
aVan co
p1057
aVid pr
p1058
aVers a
p1059
aV trea
p1060
aV.4 ml
p1061
aVd res
p1062
aVines 
p1063
aV sinc
p1064
aVsts s
p1065
aVonver
p1066
aVmpani
p1067
aVon ma
p1068
aVunit 
p1069
aVial s
p1070
aVts co
p1071
aVught 
p1072
aVmln n
p1073
aVpanie
p1074
aV like
p1075
aVtral 
p1076
aVmln r
p1077
aVe tra
p1078
aVln st
p1079
aVannua
p1080
aVnnual
p1081
aVought
p1082
aVently
p1083
aV basi
p1084
aVrity 
p1085
aVearly
p1086
aVted a
p1087
aV talk
p1088
aVerman
p1089
aVhase 
p1090
aVpolic
p1091
aVnies 
p1092
aVnext 
p1093
aVent d
p1094
aV proc
p1095
aVanies
p1096
aV conf
p1097
aVs mar
p1098
aVs exc
p1099
aVtter 
p1100
aVifica
p1101
aVectiv
p1102
aVicati
p1103
aV dome
p1104
aV next
p1105
aVrs vs
p1106
aVeight
p1107
aVers c
p1108
aV.8 ml
p1109
aVt 198
p1110
aVoted 
p1111
aVuture
p1112
aVomple
p1113
aV end 
p1114
aVe rat
p1115
aV futu
p1116
aVent f
p1117
aVfutur
p1118
aVion b
p1119
aVn reu
p1120
aV annu
p1121
aVstruc
p1122
aVicate
p1123
aV figu
p1124
aVproce
p1125
aVd man
p1126
aVon in
p1127
aVdirec
p1128
aVmount
p1129
aVs rec
p1130
aVvalue
p1131
aVirect
p1132
aVress 
p1133
aVa sai
p1134
aVagric
p1135
aVabili
p1136
aVfigur
p1137
aV agri
p1138
aVublic
p1139
aVmln t
p1140
aVigure
p1141
aV indi
p1142
aVt wee
p1143
aVaid o
p1144
aVspeci
p1145
aVcultu
p1146
aVe exp
p1147
aVultur
p1148
aVe yea
p1149
aV publ
p1150
aV.9 ml
p1151
aVterda
p1152
aVderal
p1153
aV prob
p1154
aVtreas
p1155
aV quot
p1156
aVreasu
p1157
aVted d
p1158
aVe ban
p1159
aVd 198
p1160
aVy mar
p1161
aVed sa
p1162
aVal sa
p1163
aVaroun
p1164
aVntial
p1165
aVcts s
p1166
aVe pre
p1167
aVlso s
p1168
aVt ban
p1169
aVtandi
p1170
aV.7 ml
p1171
aV hous
p1172
aVricul
p1173
aVgricu
p1174
aVr com
p1175
aVly di
p1176
aVused 
p1177
aVonds 
p1178
aV main
p1179
aVnside
p1180
aVted r
p1181
aVal pr
p1182
aVageme
p1183
aVing n
p1184
aVnces 
p1185
aVnager
p1186
aVeffec
p1187
aV equi
p1188
aVtruct
p1189
aVbonds
p1190
aVposed
p1191
aVrday 
p1192
aVferen
p1193
aVnagem
p1194
aV non-
p1195
aVfferi
p1196
aV nine
p1197
aVs off
p1198
aVn sto
p1199
aVtates
p1200
aV.0 ml
p1201
aVs cou
p1202
aV aver
p1203
aVshr l
p1204
aVhr lo
p1205
aVccoun
p1206
aVposal
p1207
aVoint 
p1208
aVpects
p1209
aV effe
p1210
aV arou
p1211
aVd int
p1212
aVg pro
p1213
aVefici
p1214
aVaccou
p1215
aV tend
p1216
aV over
p1217
aVheat 
p1218
aVwheat
p1219
aVferin
p1220
aVrger 
p1221
aVn not
p1222
aVrecei
p1223
aVconce
p1224
aVary 1
p1225
aVer ne
p1226
aV barr
p1227
aV whea
p1228
aVnine 
p1229
aVriod 
p1230
aVid ex
p1231
aVsider
p1232
aV show
p1233
aVsterd
p1234
aVed pa
p1235
aVcent 
p1236
aVold r
p1237
aV avg 
p1238
aV revi
p1239
aV valu
p1240
aVavera
p1241
aVccord
p1242
aVains 
p1243
aVnegot
p1244
aVaccor
p1245
aV-year
p1246
aV resp
p1247
aVhouse
p1248
aV base
p1249
aVgotia
p1250
aVavg s
p1251
aVegoti
p1252
aVvg sh
p1253
aVcover
p1254
aV form
p1255
aVshrs 
p1256
aV buy 
p1257
aVtribu
p1258
aVln re
p1259
aV shrs
p1260
aV deci
p1261
aVank s
p1262
aV0 cts
p1263
aV fede
p1264
aVeduce
p1265
aV cut 
p1266
aVommen
p1267
aVsure 
p1268
aV call
p1269
aVdeale
p1270
aVealer
p1271
aVducer
p1272
aVuld r
p1273
aVffere
p1274
aVittee
p1275
aVsuppl
p1276
aVasset
p1277
aVrency
p1278
aVnder 
p1279
aVies c
p1280
aV cert
p1281
aVaid n
p1282
aVpct 1
p1283
aVion l
p1284
aVonsum
p1285
aVg shr
p1286
aVrs in
p1287
aVotiat
p1288
aVent t
p1289
aVaking
p1290
aVoans 
p1291
aVribut
p1292
aV chai
p1293
aV dire
p1294
aVdend 
p1295
aVunite
p1296
aVamoun
p1297
aVloans
p1298
aV farm
p1299
aVmany 
p1300
aVed ne
p1301
aVyeste
p1302
aVnet p
p1303
aV give
p1304
aV good
p1305
aVral b
p1306
aVmplet
p1307
aVotes 
p1308
aVvice 
p1309
aVeason
p1310
aVerday
p1311
aV yest
p1312
aVnited
p1313
aVgerma
p1314
aVerms 
p1315
aVest r
p1316
aVants 
p1317
aV germ
p1318
aVcommu
p1319
aV amou
p1320
aVterms
p1321
aVhighe
p1322
aVrcial
p1323
aVy 198
p1324
aVmerci
p1325
aVer in
p1326
aVercia
p1327
aV set 
p1328
aVontra
p1329
aVidiar
p1330
aVough 
p1331
aVommun
p1332
aVorgan
p1333
aV surp
p1334
aVsidia
p1335
aVomest
p1336
aVed la
p1337
aVless 
p1338
aVgram 
p1339
aVonsid
p1340
aVestic
p1341
aVate s
p1342
aVlikel
p1343
aVnt pr
p1344
aVd new
p1345
aVmmuni
p1346
aVing g
p1347
aVously
p1348
aVasury
p1349
aV merg
p1350
aVlrs r
p1351
aVdomes
p1352
aVsury 
p1353
aVmesti
p1354
aVt int
p1355
aVd rep
p1356
aVoutst
p1357
aVunced
p1358
aVving 
p1359
aVectio
p1360
aV000 s
p1361
aVollow
p1362
aVfollo
p1363
aVs cor
p1364
aVttee 
p1365
aVdeman
p1366
aVsocia
p1367
aVoved 
p1368
aV vs 4
p1369
aVemand
p1370
aVrain 
p1371
aVrance
p1372
aVies s
p1373
aVrial 
p1374
aVlable
p1375
aVl com
p1376
aVtstan
p1377
aV need
p1378
aVutsta
p1379
aVging 
p1380
aVdefic
p1381
aVng de
p1382
aVrs pe
p1383
aVinate
p1384
aVy con
p1385
aV dema
p1386
aV nego
p1387
aVed fi
p1388
aVd dec
p1389
aVlead 
p1390
aVt exp
p1391
aVfall 
p1392
aVorrow
p1393
aVoposa
p1394
aVchair
p1395
aVng se
p1396
aVstem 
p1397
aVnotes
p1398
aVreven
p1399
aVraise
p1400
aVid de
p1401
aV reve
p1402
aVrivat
p1403
aV gold
p1404
aVd rec
p1405
aV5 dlr
p1406
aVikely
p1407
aVorth 
p1408
aVkely 
p1409
aVrefer
p1410
aVnual 
p1411
aVerger
p1412
aVd inc
p1413
aVnion 
p1414
aVet in
p1415
aVy pro
p1416
aV well
p1417
aV char
p1418
aVld co
p1419
aVeceiv
p1420
aV stan
p1421
aVd off
p1422
aVontro
p1423
aValks 
p1424
aVe off
p1425
aVtalks
p1426
aVe reu
p1427
aVplant
p1428
aVrs sh
p1429
aVsting
p1430
aVion w
p1431
aVe oil
p1432
aVlers 
p1433
aVparti
p1434
aVming 
p1435
aVstill
p1436
aVcompe
p1437
aVpriva
p1438
aV foll
p1439
aVts sh
p1440
aVt mar
p1441
aVpport
p1442
aVd agr
p1443
aVid sa
p1444
aVing w
p1445
aVs las
p1446
aVt sta
p1447
aV gas 
p1448
aVhairm
p1449
aVuding
p1450
aV full
p1451
aVarks 
p1452
aVbased
p1453
aVdisco
p1454
aVnting
p1455
aVucts 
p1456
aVerves
p1457
aVducts
p1458
aVons s
p1459
aVed ba
p1460
aVent m
p1461
aVinal 
p1462
aV move
p1463
aVn ton
p1464
aVn yea
p1465
aVairma
p1466
aVd deb
p1467
aVrves 
p1468
aVirman
p1469
aV priv
p1470
aVtrati
p1471
aVludin
p1472
aVcludi
p1473
aVln to
p1474
aVmarks
p1475
aVater 
p1476
aV inco
p1477
aVunion
p1478
aVnterv
p1479
aVhing 
p1480
aVanker
p1481
aVplan 
p1482
aVnvert
p1483
aVopmen
p1484
aVelect
p1485
aVt reu
p1486
aV5 cts
p1487
aV agen
p1488
aVid in
p1489
aVlopme
p1490
aVelopm
p1491
aVusly 
p1492
aVowed 
p1493
aVepres
p1494
aVe apr
p1495
aVwell 
p1496
aVr yea
p1497
aVce co
p1498
aV0 bil
p1499
aVrange
p1500
aVspect
p1501
aVarran
p1502
aVe pct
p1503
aVmln a
p1504
aVbarre
p1505
aVising
p1506
aVes de
p1507
aVgain 
p1508
aVy div
p1509
aVping 
p1510
aVgrain
p1511
aVgress
p1512
aVres c
p1513
aVs due
p1514
aVasis 
p1515
aVpart 
p1516
aVd u.s
p1517
aVficit
p1518
aVntrac
p1519
aVted l
p1520
aV howe
p1521
aVigher
p1522
aVntrol
p1523
aVrred 
p1524
aVmers 
p1525
aVopean
p1526
aVons c
p1527
aVropea
p1528
aVouth 
p1529
aVn con
p1530
aVstria
p1531
aVwever
p1532
aVd wou
p1533
aVoweve
p1534
aVe inc
p1535
aV unio
p1536
aVs als
p1537
aV reac
p1538
aVhowev
p1539
aVmembe
p1540
aVgher 
p1541
aVoldin
p1542
aV.5 pc
p1543
aVe res
p1544
aVs rep
p1545
aV allo
p1546
aVopose
p1547
aVted b
p1548
aVarrel
p1549
aVtill 
p1550
aVid st
p1551
aVrch 1
p1552
aVerate
p1553
aVdditi
p1554
aVaddit
p1555
aViousl
p1556
aVager 
p1557
aV3,000
p1558
aVssoci
p1559
aVholdi
p1560
aVer 19
p1561
aV2,000
p1562
aVassoc
p1563
aV6,000
p1564
aVociat
p1565
aVter s
p1566
aVsets 
p1567
aV petr
p1568
aV impr
p1569
aVent i
p1570
aViary 
p1571
aV acce
p1572
aVd las
p1573
aVpct p
p1574
aVpetro
p1575
aV asso
p1576
aVroved
p1577
aV opti
p1578
aV4,000
p1579
aVn ban
p1580
aVblic 
p1581
aVmln b
p1582
aVals s
p1583
aVlian 
p1584
aVred s
p1585
aVmand 
p1586
aVest g
p1587
aVuring
p1588
aVrovid
p1589
aVies i
p1590
aVeast 
p1591
aVpaper
p1592
aVge co
p1593
aVadjus
p1594
aVrs ne
p1595
aVstake
p1596
aVer st
p1597
aVdian 
p1598
aVdjust
p1599
aVso sa
p1600
aVpean 
p1601
aVarge 
p1602
aVositi
p1603
aVuld s
p1604
aVd tra
p1605
aVive c
p1606
aVsugar
p1607
aV ende
p1608
aVrters
p1609
aVrequi
p1610
aVeady 
p1611
aVbasis
p1612
aVired 
p1613
aVivate
p1614
aVsses 
p1615
aVminat
p1616
aVistra
p1617
aVaders
p1618
aVlans 
p1619
aVnking
p1620
aVurplu
p1621
aVrplus
p1622
aVsurpl
p1623
aVseven
p1624
aVns co
p1625
aVtrial
p1626
aVolicy
p1627
aV suga
p1628
aVtiati
p1629
aVceive
p1630
aVplans
p1631
aV debe
p1632
aVd par
p1633
aV 100 
p1634
aVdicat
p1635
aVicit 
p1636
aVate c
p1637
aVnated
p1638
aVrestr
p1639
aVdeben
p1640
aVng st
p1641
aVnce s
p1642
aVebent
p1643
aVrence
p1644
aV tele
p1645
aVbentu
p1646
aVpossi
p1647
aVequir
p1648
aV stak
p1649
aVforma
p1650
aVk sai
p1651
aVaker 
p1652
aV real
p1653
aVduce 
p1654
aVecond
p1655
aVlrs n
p1656
aVossib
p1657
aVnary 
p1658
aVs dis
p1659
aVln no
p1660
aVorter
p1661
aV6 pct
p1662
aVs for
p1663
aVs sta
p1664
aVforec
p1665
aVg con
p1666
aVar re
p1667
aVies e
p1668
aVuntry
p1669
aVsecon
p1670
aV8,000
p1671
aVaper 
p1672
aVssets
p1673
aVsold 
p1674
aVright
p1675
aV50 ml
p1676
aV seco
p1677
aVunds 
p1678
aVuters
p1679
aVial p
p1680
aVted f
p1681
aVbanke
p1682
aVdiary
p1683
aVmated
p1684
aVntry 
p1685
aVpct f
p1686
aVtable
p1687
aVmake 
p1688
aVrica 
p1689
aVt cou
p1690
aVecast
p1691
aV star
p1692
aV stil
p1693
aVd sha
p1694
aVrecas
p1695
aVoreca
p1696
aVrader
p1697
aV help
p1698
aVd cou
p1699
aV7,000
p1700
aVr off
p1701
aV brit
p1702
aVively
p1703
aV regi
p1704
aVst ra
p1705
aVvely 
p1706
aVtatio
p1707
aVsell 
p1708
aVnce m
p1709
aValers
p1710
aVuld c
p1711
aVs one
p1712
aVndica
p1713
aVed ex
p1714
aV eigh
p1715
aVd ope
p1716
aVimpro
p1717
aVgures
p1718
aV cond
p1719
aVipmen
p1720
aVlater
p1721
aVlicy 
p1722
aVs wor
p1723
aVpct r
p1724
aVwned 
p1725
aVverti
p1726
aVessio
p1727
aV-1/2 
p1728
aVugar 
p1729
aVon de
p1730
aV... .
p1731
aVres s
p1732
aValled
p1733
aV exte
p1734
aVowned
p1735
aVade s
p1736
aVulati
p1737
aV div 
p1738
aVhalf 
p1739
aVs new
p1740
aV sold
p1741
aVaid g
p1742
aVplace
p1743
aVing u
p1744
aVorati
p1745
aVistry
p1746
aVs fir
p1747
aVincom
p1748
aV open
p1749
aV reso
p1750
aVnderw
p1751
aVrs pr
p1752
aVject 
p1753
aV3 pct
p1754
aV poss
p1755
aVear r
p1756
aVnal c
p1757
aVched 
p1758
aVlosed
p1759
aVanada
p1760
aVnged 
p1761
aVuced 
p1762
aVl pri
p1763
aVompet
p1764
aVls sa
p1765
aVonomy
p1766
aVnomy 
p1767
aVmprov
p1768
aVrs de
p1769
aVduced
p1770
aVon sh
p1771
aVevel 
p1772
aVn exp
p1773
aV grai
p1774
aV2 cts
p1775
aVturin
p1776
aVases 
p1777
aVst mo
p1778
aVer to
p1779
aVmain 
p1780
aVetail
p1781
aVear a
p1782
aVrelat
p1783
aV inde
p1784
aVstors
p1785
aVe mon
p1786
aVgency
p1787
aVid ma
p1788
aVe int
p1789
aVerenc
p1790
aVr pri
p1791
aVthird
p1792
aVted m
p1793
aV dist
p1794
aVplete
p1795
aVive p
p1796
aVent l
p1797
aVaustr
p1798
aVarges
p1799
aVuld a
p1800
aV diff
p1801
aVveral
p1802
aVd apr
p1803
aVstitu
p1804
aVcies 
p1805
aVst ge
p1806
aV pref
p1807
aVlture
p1808
aVry co
p1809
aV aust
p1810
aVlate 
p1811
aVt ger
p1812
aVnada 
p1813
aV vs 5
p1814
aVncing
p1815
aVrch 3
p1816
aVoss 2
p1817
aV half
p1818
aV elec
p1819
aVent e
p1820
aVagenc
p1821
aVnt in
p1822
aVr reu
p1823
aVstart
p1824
aVity s
p1825
aVural 
p1826
aVeferr
p1827
aVvenue
p1828
aVanadi
p1829
aV repr
p1830
aVinten
p1831
aV memb
p1832
aVciati
p1833
aVion o
p1834
aVfit 1
p1835
aVyield
p1836
aVlude 
p1837
aVted t
p1838
aVexclu
p1839
aVary s
p1840
aVsuppo
p1841
aVoil p
p1842
aVlong 
p1843
aV sect
p1844
aVprefe
p1845
aV9,000
p1846
aVst we
p1847
aVrepre
p1848
aVsued 
p1849
aV1 pct
p1850
aVsions
p1851
aVevenu
p1852
aVtory 
p1853
aV excl
p1854
aVnadia
p1855
aVallow
p1856
aVadian
p1857
aVield 
p1858
aVustra
p1859
aVinati
p1860
aVovide
p1861
aV mine
p1862
aVion 1
p1863
aVn 198
p1864
aVncome
p1865
aVaying
p1866
aVts in
p1867
aVtely 
p1868
aVlance
p1869
aVed sh
p1870
aVnior 
p1871
aV adju
p1872
aViniti
p1873
aVnew y
p1874
aV york
p1875
aVjune 
p1876
aVhigh 
p1877
aVderwr
p1878
aVnce c
p1879
aVetter
p1880
aValanc
p1881
aVe sec
p1882
aVble s
p1883
aVuppor
p1884
aValue 
p1885
aVerwri
p1886
aVast m
p1887
aVe cts
p1888
aVid bo
p1889
aVitive
p1890
aV2 bil
p1891
aVaid u
p1892
aVctors
p1893
aVrwrit
p1894
aV rela
p1895
aVsible
p1896
aVfirm 
p1897
aV prin
p1898
aVgest 
p1899
aVbalan
p1900
aVed su
p1901
aV back
p1902
aVuing 
p1903
aVw yor
p1904
aV-term
p1905
aVew yo
p1906
aVssued
p1907
aVready
p1908
aV drop
p1909
aVfits 
p1910
aVed ac
p1911
aVtible
p1912
aVupon 
p1913
aVentio
p1914
aVevs 1
p1915
aVd sto
p1916
aVsigne
p1917
aVst co
p1918
aVal ma
p1919
aV news
p1920
aVeeds 
p1921
aVtural
p1922
aVgold 
p1923
aVults 
p1924
aVreach
p1925
aVntion
p1926
aVcers 
p1927
aVstron
p1928
aVtitut
p1929
aVer ma
p1930
aV infl
p1931
aVyork 
p1932
aVine m
p1933
aVerred
p1934
aVrancs
p1935
aV/4 pc
p1936
aVr con
p1937
aVinued
p1938
aVrs 19
p1939
aV line
p1940
aVes ba
p1941
aVnued 
p1942
aVigned
p1943
aVinary
p1944
aVpetit
p1945
aVancs 
p1946
aVstral
p1947
aVt qua
p1948
aVpecia
p1949
aV yiel
p1950
aVecial
p1951
aVd for
p1952
aVgned 
p1953
aVtrong
p1954
aVellin
p1955
aVpendi
p1956
aVcrude
p1957
aVsed s
p1958
aVns re
p1959
aVferre
p1960
aVview 
p1961
aVerve 
p1962
aVct re
p1963
aVmpeti
p1964
aVsults
p1965
aVinue 
p1966
aVcharg
p1967
aVest p
p1968
aVevera
p1969
aVe dep
p1970
aVdate 
p1971
aV port
p1972
aVtrali
p1973
aVtivel
p1974
aVil pr
p1975
aVether
p1976
aVlowin
p1977
aViscal
p1978
aV crud
p1979
aVsenio
p1980
aVfisca
p1981
aVavail
p1982
aVuire 
p1983
aVporat
p1984
aVenior
p1985
aVl res
p1986
aVng sa
p1987
aVd pla
p1988
aVcorpo
p1989
aVent o
p1990
aV fisc
p1991
aVorpor
p1992
aVffice
p1993
aVartic
p1994
aVvaila
p1995
aVvate 
p1996
aVcoffe
p1997
aVnet i
p1998
aVy reu
p1999
aVt pay
p2000
aVscal 
p2001
aVralia
p2002
aVailab
p2003
aVquota
p2004
aV area
p2005
aVed lo
p2006
aVl cor
p2007
aVrpora
p2008
aVanged
p2009
aVn tra
p2010
aV/8 pc
p2011
aVber 1
p2012
aVoffee
p2013
aVnorth
p2014
aVnge c
p2015
aVre co
p2016
aV outp
p2017
aVr end
p2018
aVactiv
p2019
aV coff
p2020
aVs ind
p2021
aV nort
p2022
aVemplo
p2023
aVpply 
p2024
aVal de
p2025
aVs par
p2026
aV posi
p2027
aVrtain
p2028
aV stro
p2029
aVe for
p2030
aVmploy
p2031
aVorder
p2032
aVpact 
p2033
aVhough
p2034
aVthoug
p2035
aVertai
p2036
aVxclud
p2037
aVd one
p2038
aVlight
p2039
aVregul
p2040
aVertib
p2041
aViate 
p2042
aVed 19
p2043
aVuired
p2044
aVegula
p2045
aVers i
p2046
aVial c
p2047
aVrtibl
p2048
aVast w
p2049
aV seni
p2050
aVdays 
p2051
aV june
p2052
aVtes s
p2053
aV.. ..
p2054
aV owne
p2055
aVper n
p2056
aVnkers
p2057
aVately
p2058
aVuctur
p2059
aVs two
p2060
aVs ros
p2061
aVharge
p2062
aVion n
p2063
aVransa
p2064
aVructu
p2065
aVt pre
p2066
aVsecto
p2067
aVroble
p2068
aVenerg
p2069
aVt tra
p2070
aVd acq
p2071
aVt dec
p2072
aVct pr
p2073
aVffee 
p2074
aViled 
p2075
aVted e
p2076
aVucers
p2077
aVe ind
p2078
aVies a
p2079
aVs acc
p2080
aVutput
p2081
aVnge r
p2082
aVoutpu
p2083
aVrd ma
p2084
aVly co
p2085
aVtput 
p2086
aVrude 
p2087
aV coup
p2088
aVpct l
p2089
aV prim
p2090
aVheld 
p2091
aV reta
p2092
aVprobl
p2093
aVre re
p2094
aVained
p2095
aVoblem
p2096
aVnergy
p2097
aVnsume
p2098
aVies r
p2099
aVouse 
p2100
aVe sha
p2101
aVssed 
p2102
aVosal 
p2103
aVentia
p2104
aVted 1
p2105
aVd iss
p2106
aVct in
p2107
aVtly d
p2108
aVancin
p2109
aVltd s
p2110
aV date
p2111
aVoptio
p2112
aVed op
p2113
aVosts 
p2114
aV near
p2115
aVankin
p2116
aVn avg
p2117
aVmment
p2118
aViting
p2119
aV avai
p2120
aV days
p2121
aVar sh
p2122
aVilabl
p2123
aVergy 
p2124
aVid fi
p2125
aVshing
p2126
aV7 pct
p2127
aVed me
p2128
aVbanki
p2129
aV thir
p2130
aVid wo
p2131
aV faci
p2132
aVchedu
p2133
aVs deb
p2134
aV corn
p2135
aVsched
p2136
aVr ear
p2137
aVhedul
p2138
aVte co
p2139
aVives 
p2140
aVlondo
p2141
aVe agr
p2142
aVondon
p2143
aVrowin
p2144
aVndon 
p2145
aVcture
p2146
aVrtner
p2147
aVprinc
p2148
aVfunds
p2149
aVhird 
p2150
aVn sta
p2151
aVnstit
p2152
aVners 
p2153
aVtance
p2154
aVead m
p2155
aVtern 
p2156
aVtical
p2157
aVnt ba
p2158
aVs sal
p2159
aViced 
p2160
aVs gro
p2161
aVsumer
p2162
aVetrol
p2163
aVdinat
p2164
aVent u
p2165
aV used
p2166
aV8 bil
p2167
aV righ
p2168
aVd sec
p2169
aVr ban
p2170
aVord m
p2171
aVasure
p2172
aVssibl
p2173
aVce mi
p2174
aVdeal 
p2175
aVcond 
p2176
aV3 bil
p2177
aVquest
p2178
aV9 pct
p2179
aVng fi
p2180
aV lond
p2181
aVoject
p2182
aV proj
p2183
aVn wou
p2184
aVank c
p2185
aVrojec
p2186
aVproje
p2187
aVsever
p2188
aVlrs f
p2189
aVn fra
p2190
aVcity 
p2191
aVg sai
p2192
aVcosts
p2193
aV anot
p2194
aVate a
p2195
aVanoth
p2196
aVnothe
p2197
aVcific
p2198
aVion g
p2199
aV refl
p2200
aVry 19
p2201
aVovisi
p2202
aVate p
p2203
aVts pe
p2204
aVrovis
p2205
aVrated
p2206
aVe sta
p2207
aVfull 
p2208
aVenter
p2209
aVlread
p2210
aValrea
p2211
aVupply
p2212
aVlined
p2213
aVlose 
p2214
aVized 
p2215
aVartne
p2216
aVills 
p2217
aV much
p2218
aVon ye
p2219
aVcoupo
p2220
aV plc 
p2221
aVbject
p2222
aV alre
p2223
aVlimit
p2224
aVetiti
p2225
aVoupon
p2226
aVfered
p2227
aVnt de
p2228
aV extr
p2229
aVd ear
p2230
aVt for
p2231
aVstrie
p2232
aVes wo
p2233
aV chin
p2234
aVn pre
p2235
aVvs 1,
p2236
aVcast 
p2237
aVay re
p2238
aV refi
p2239
aVmuch 
p2240
aVld pr
p2241
aV day 
p2242
aVcondi
p2243
aVsecre
p2244
aVeted 
p2245
aV carr
p2246
aVnoted
p2247
aVnditi
p2248
aVomina
p2249
aVllowi
p2250
aVpct i
p2251
aVially
p2252
aVondit
p2253
aVd two
p2254
aVecret
p2255
aVpartn
p2256
aVs dec
p2257
aVinsti
p2258
aV expl
p2259
aVcerta
p2260
aVng ex
p2261
aVe u.s
p2262
aV admi
p2263
aV auth
p2264
aVt gro
p2265
aVrante
p2266
aVed fo
p2267
aV exce
p2268
aVlectr
p2269
aVstern
p2270
aVlated
p2271
aVuthor
p2272
aV4 bil
p2273
aVautho
p2274
aVillin
p2275
aVrefin
p2276
aV join
p2277
aVing h
p2278
aVntain
p2279
aVdiscu
p2280
aVscuss
p2281
aVflect
p2282
aVriced
p2283
aViscus
p2284
aV ener
p2285
aVeflec
p2286
aVad ma
p2287
aVr pay
p2288
aVbill 
p2289
aVfecti
p2290
aVs inv
p2291
aVreate
p2292
aVt two
p2293
aVexten
p2294
aV bala
p2295
aV stre
p2296
aVrefle
p2297
aVlrs d
p2298
aVtrust
p2299
aVs agr
p2300
aVt res
p2301
aV seek
p2302
aV ago 
p2303
aV pape
p2304
aVific 
p2305
aVerven
p2306
aVcturi
p2307
aVumber
p2308
aV less
p2309
aVsult 
p2310
aV stab
p2311
aV beli
p2312
aVthori
p2313
aVansac
p2314
aVselli
p2315
aVmln y
p2316
aVterve
p2317
aVnal s
p2318
aV leas
p2319
aVcilit
p2320
aVfacil
p2321
aVfer s
p2322
aV pari
p2323
aVnsact
p2324
aVt off
p2325
aVrned 
p2326
aVity c
p2327
aVacili
p2328
aVd fin
p2329
aVket s
p2330
aV limi
p2331
aVed to
p2332
aVe wou
p2333
aVln ye
p2334
aVor co
p2335
aVnally
p2336
aVward 
p2337
aV.s. c
p2338
aV want
p2339
aVtabil
p2340
aVbelie
p2341
aVhelp 
p2342
aVd dis
p2343
aVdinar
p2344
aVbudge
p2345
aVse pr
p2346
aVficat
p2347
aVship 
p2348
aVccept
p2349
aVed ca
p2350
aVistri
p2351
aVaccep
p2352
aVed di
p2353
aVcost 
p2354
aVints 
p2355
aVespon
p2356
aVincip
p2357
aVseaso
p2358
aVaid h
p2359
aVln av
p2360
aVditor
p2361
aVrespo
p2362
aVs iss
p2363
aVentin
p2364
aVdistr
p2365
aVons a
p2366
aVcessi
p2367
aVn exc
p2368
aV orde
p2369
aVrinci
p2370
aVes st
p2371
aVudget
p2372
aVsacti
p2373
aVpct t
p2374
aVted n
p2375
aVnt ma
p2376
aVy off
p2377
aVer de
p2378
aV meas
p2379
aVmeasu
p2380
aVct st
p2381
aVwrite
p2382
aVe rep
p2383
aV guar
p2384
aV crop
p2385
aVd fir
p2386
aVcorn 
p2387
aVn u.s
p2388
aVe par
p2389
aV budg
p2390
aVtrole
p2391
aV1 bil
p2392
aVal pa
p2393
aV1 cts
p2394
aVnet 1
p2395
aVzatio
p2396
aVizati
p2397
aVeliev
p2398
aVuld p
p2399
aVprova
p2400
aVrch 2
p2401
aVroval
p2402
aVng lo
p2403
aVretar
p2404
aVtage 
p2405
aV seas
p2406
aVs sho
p2407
aVes se
p2408
aVened 
p2409
aVrs se
p2410
aV6 bil
p2411
aV repa
p2412
aVided 
p2413
aVrecto
p2414
aVecuti
p2415
aVial b
p2416
aVcreta
p2417
aVn int
p2418
aVspend
p2419
aVparis
p2420
aVecisi
p2421
aVdity 
p2422
aV depo
p2423
aVsent 
p2424
aVmedia
p2425
aVmatur
p2426
aVdepos
p2427
aVippin
p2428
aVal st
p2429
aVsed p
p2430
aVutive
p2431
aV even
p2432
aVone s
p2433
aVs jap
p2434
aVfactu
p2435
aVer of
p2436
aVback 
p2437
aV held
p2438
aVe bil
p2439
aVnues 
p2440
aVon se
p2441
aVl mar
p2442
aVed fe
p2443
aVwork 
p2444
aVactur
p2445
aVe sub
p2446
aVrs ye
p2447
aVers p
p2448
aVfund 
p2449
aVfinal
p2450
aVshr p
p2451
aVnsion
p2452
aVeposi
p2453
aVvery 
p2454
aVle co
p2455
aVlieve
p2456
aVce in
p2457
aVmanuf
p2458
aVists 
p2459
aVnufac
p2460
aVanufa
p2461
aVsovie
p2462
aVufact
p2463
aVoviet
p2464
aV manu
p2465
aVadmin
p2466
aV rati
p2467
aVril 2
p2468
aV4 cts
p2469
aVe mln
p2470
aVhr pr
p2471
aV plac
p2472
aVo inc
p2473
aVtry s
p2474
aVl yea
p2475
aVttle 
p2476
aV.s. d
p2477
aVsed c
p2478
aVforce
p2479
aV turn
p2480
aVs fin
p2481
aVean c
p2482
aVmove 
p2483
aVl con
p2484
aVindic
p2485
aVone c
p2486
aVer ba
p2487
aVcutiv
p2488
aVdmini
p2489
aVh 31 
p2490
aV7 bil
p2491
aVrgani
p2492
aVsive 
p2493
aVch 31
p2494
aV regu
p2495
aVnomin
p2496
aVd wor
p2497
aVcisio
p2498
aVst qu
p2499
aVdecis
p2500
aVers e
p2501
aVptemb
p2502
aVermin
p2503
aVary c
p2504
aVtembe
p2505
aV. ...
p2506
aVsepte
p2507
aVs add
p2508
aVeptem
p2509
aVdiscl
p2510
aVpped 
p2511
aVtarge
p2512
aVted i
p2513
aV thin
p2514
aVrding
p2515
aVarget
p2516
aVvels 
p2517
aVry re
p2518
aVrevis
p2519
aVtanda
p2520
aVarant
p2521
aV expa
p2522
aV lend
p2523
aVl tra
p2524
aVevels
p2525
aVse co
p2526
aVmark 
p2527
aVg mar
p2528
aVisclo
p2529
aVsplit
p2530
aVsclos
p2531
aVl gas
p2532
aVandar
p2533
aVculat
p2534
aVs shr
p2535
aVned s
p2536
aVuatio
p2537
aV targ
p2538
aVge ra
p2539
aVng ne
p2540
aVrs wo
p2541
aVd add
p2542
aVd pay
p2543
aVnts s
p2544
aVexpan
p2545
aVborro
p2546
aVedito
p2547
aV vs 6
p2548
aVpct m
p2549
aV prot
p2550
aVnt se
p2551
aVicipa
p2552
aVdget 
p2553
aVock s
p2554
aVndard
p2555
aVed le
p2556
aVxecut
p2557
aVexecu
p2558
aV secr
p2559
aVespec
p2560
aVort s
p2561
aVaged 
p2562
aVt sha
p2563
aVts op
p2564
aVuaran
p2565
aVrust 
p2566
aV sept
p2567
aVn pri
p2568
aVnity 
p2569
aV migh
p2570
aVofits
p2571
aVngton
p2572
aVingto
p2573
aV init
p2574
aVguara
p2575
aV cour
p2576
aVid ba
p2577
aVqtly 
p2578
aVy int
p2579
aVmight
p2580
aVplit 
p2581
aVnger 
p2582
aV exec
p2583
aV vs 7
p2584
aVnitia
p2585
aVtific
p2586
aVpct d
p2587
aVsubor
p2588
aV borr
p2589
aVubord
p2590
aVs uni
p2591
aVr tra
p2592
aViling
p2593
aVt u.s
p2594
aVbordi
p2595
aVl inc
p2596
aVsues 
p2597
aV trus
p2598
aVcess 
p2599
aVssues
p2600
aVess c
p2601
aV3 cts
p2602
aVpaid 
p2603
aV bid 
p2604
aV qtr 
p2605
aV boug
p2606
aV986 r
p2607
aVtwo c
p2608
aVe new
p2609
aVd imp
p2610
aVlines
p2611
aVbough
p2612
aVers t
p2613
aVt uni
p2614
aVes du
p2615
aVear c
p2616
aVequit
p2617
aVng pa
p2618
aVunity
p2619
aV cove
p2620
aV matu
p2621
aVct 19
p2622
aVed mo
p2623
aV co s
p2624
aV subo
p2625
aVs ass
p2626
aVnce p
p2627
aVgton 
p2628
aVflati
p2629
aVprote
p2630
aV sovi
p2631
aVs tot
p2632
aVtest 
p2633
aVather
p2634
aVar co
p2635
aVl 198
p2636
aVtems 
p2637
aVd cha
p2638
aVchina
p2639
aVcemen
p2640
aVworth
p2641
aVoleum
p2642
aVes sh
p2643
aVived 
p2644
aVd cur
p2645
aVs imp
p2646
aVion y
p2647
aVroleu
p2648
aVy res
p2649
aVoceed
p2650
aVrocee
p2651
aVinfla
p2652
aVoncer
p2653
aVs thr
p2654
aVe cou
p2655
aVed ja
p2656
aVand s
p2657
aVary r
p2658
aV1988 
p2659
aVrentl
p2660
aVoval 
p2661
aVomist
p2662
aVoods 
p2663
aVe fin
p2664
aVnomis
p2665
aV sche
p2666
aVn deb
p2667
aVticip
p2668
aVd qua
p2669
aV mths
p2670
aVary 2
p2671
aVaving
p2672
aVnflat
p2673
aVe las
p2674
aVy sec
p2675
aVleum 
p2676
aVbaker
p2677
aVhina 
p2678
aVmths 
p2679
aVor pa
p2680
aVstant
p2681
aVritis
p2682
aVances
p2683
aVntati
p2684
aVainin
p2685
aVers m
p2686
aV bake
p2687
aVany a
p2688
aVtners
p2689
aVs cur
p2690
aVbriti
p2691
aVrmed 
p2692
aVy rep
p2693
aVssure
p2694
aVons r
p2695
aV 1988
p2696
aVrs ba
p2697
aVmbers
p2698
aV1/2 p
p2699
aVends 
p2700
aVitish
p2701
aVlrs t
p2702
aVlrs b
p2703
aVar ea
p2704
aV fact
p2705
aVextra
p2706
aVce re
p2707
aV86 re
p2708
aVy sta
p2709
aVleted
p2710
aVt wou
p2711
aVistic
p2712
aVank a
p2713
aVon wo
p2714
aVtermi
p2715
aVactor
p2716
aVter c
p2717
aVsked 
p2718
aVnges 
p2719
aVasked
p2720
aVd feb
p2721
aVhers 
p2722
aVlease
p2723
aVplann
p2724
aVes fi
p2725
aVormal
p2726
aVce pr
p2727
aV aske
p2728
aVcalle
p2729
aV9 bil
p2730
aVng ba
p2731
aVcts o
p2732
aVrs ma
p2733
aVe cha
p2734
aVtish 
p2735
aVaris 
p2736
aVclear
p2737
aVr exp
p2738
aVe cur
p2739
aVons p
p2740
aVsharp
p2741
aVract 
p2742
aVvices
p2743
aVn cor
p2744
aVrgest
p2745
aVn inc
p2746
aV mean
p2747
aVies m
p2748
aVed un
p2749
aVopec 
p2750
aV0 sal
p2751
aVy exp
p2752
aVocks 
p2753
aVs fel
p2754
aVrong 
p2755
aVn cou
p2756
aVght c
p2757
aVr int
p2758
aVfect 
p2759
aVate f
p2760
aV bpd 
p2761
aVct ma
p2762
aVany c
p2763
aVy tra
p2764
aVusted
p2765
aVfourt
p2766
aV rang
p2767
aVoints
p2768
aVe sto
p2769
aV spli
p2770
aVl exp
p2771
aVstrib
p2772
aV comb
p2773
aVcting
p2774
aVned c
p2775
aVasing
p2776
aV low 
p2777
aVign e
p2778
aVed 10
p2779
aV name
p2780
aVies p
p2781
aVbills
p2782
aVshr 1
p2783
aVourth
p2784
aV say 
p2785
aVday r
p2786
aVaised
p2787
aVdings
p2788
aVd ind
p2789
aVbers 
p2790
aVr cor
p2791
aV must
p2792
aV00 sa
p2793
aVed ta
p2794
aVnumbe
p2795
aVnts c
p2796
aVtrol 
p2797
aVvised
p2798
aVturn 
p2799
aVing 2
p2800
aVached
p2801
aVs sub
p2802
aVal tr
p2803
aVd jan
p2804
aVr sto
p2805
aVe fir
p2806
aVd sal
p2807
aVmonet
p2808
aVually
p2809
aVn rev
p2810
aV numb
p2811
aVoneta
p2812
aVent w
p2813
aVnetar
p2814
aVal se
p2815
aVate d
p2816
aVs out
p2817
aVt sec
p2818
aVjuste
p2819
aVs pla
p2820
aVt las
p2821
aVmust 
p2822
aVs end
p2823
aVmptio
p2824
aV7 cts
p2825
aVe gro
p2826
aVfied 
p2827
aVreal 
p2828
aVrst q
p2829
aVirms 
p2830
aVfirms
p2831
aVior p
p2832
aVlemen
p2833
aVion u
p2834
aVe pla
p2835
aVurth 
p2836
aVed bu
p2837
aVvs 1.
p2838
aVpect 
p2839
aV6 cts
p2840
aVs may
p2841
aVded r
p2842
aVrtifi
p2843
aVes al
p2844
aV many
p2845
aVle de
p2846
aVmakin
p2847
aVsures
p2848
aVnning
p2849
aVd lea
p2850
aVe dis
p2851
aVday s
p2852
aVid ne
p2853
aVng sh
p2854
aVopen 
p2855
aVtd sa
p2856
aVe imp
p2857
aVcordi
p2858
aVental
p2859
aVst pa
p2860
aVombin
p2861
aVine c
p2862
aVest c
p2863
aVanges
p2864
aVrrels
p2865
aVed tr
p2866
aVsoybe
p2867
aVoybea
p2868
aVate r
p2869
aVyear-
p2870
aVng ca
p2871
aVybean
p2872
aVer ex
p2873
aVnk sa
p2874
aVd thr
p2875
aVncern
p2876
aVtives
p2877
aVventi
p2878
aVd gro
p2879
aVdard 
p2880
aVsix m
p2881
aV come
p2882
aVstabi
p2883
aV soyb
p2884
aVnter 
p2885
aVuted 
p2886
aVncies
p2887
aVrels 
p2888
aVed u.
p2889
aVe man
p2890
aVgulat
p2891
aV8 cts
p2892
aVry sa
p2893
aVards 
p2894
aVces c
p2895
aVths s
p2896
aV empl
p2897
aVng tr
p2898
aVres d
p2899
aVs ltd
p2900
aV.s. t
p2901
aVnews 
p2902
aVn off
p2903
aV insu
p2904
aVllow 
p2905
aVority
p2906
aVs cha
p2907
aVthin 
p2908
aV chem
p2909
aVosses
p2910
aVte re
p2911
aV list
p2912
aVrd ap
p2913
aVviet 
p2914
aV stra
p2915
aVbroad
p2916
aVns in
p2917
aVurity
p2918
aVcombi
p2919
aVason 
p2920
aVlosse
p2921
aV warr
p2922
aVts ma
p2923
aV stor
p2924
aV opec
p2925
aVrough
p2926
aVmunit
p2927
aVare c
p2928
aVes 19
p2929
aV cong
p2930
aVd rat
p2931
aVtechn
p2932
aVsatio
p2933
aV-1/4 
p2934
aVco sa
p2935
aVd rea
p2936
aVr mar
p2937
aV use 
p2938
aVid ag
p2939
aVccess
p2940
aVnts p
p2941
aVt per
p2942
aVe cor
p2943
aVle pr
p2944
aVuity 
p2945
aVlrs l
p2946
aVco in
p2947
aV/2 pc
p2948
aVcerti
p2949
aVrench
p2950
aVed te
p2951
aVsed t
p2952
aVey ma
p2953
aVblish
p2954
aVommod
p2955
aVressu
p2956
aV atte
p2957
aVessur
p2958
aVrrant
p2959
aVe rec
p2960
aVlrs y
p2961
aVediat
p2962
aVone p
p2963
aVevise
p2964
aVertif
p2965
aV appl
p2966
aVard p
p2967
aVlrs o
p2968
aVyable
p2969
aV n't 
p2970
aVured 
p2971
aVive m
p2972
aVse re
p2973
aVquity
p2974
aVovers
p2975
aVwarra
p2976
aVayabl
p2977
aVpayab
p2978
aVil co
p2979
aV.s. a
p2980
aVlegat
p2981
aVsed r
p2982
aVfacto
p2983
aVhout 
p2984
aVentat
p2985
aVle ma
p2986
aVecomm
p2987
aVdrop 
p2988
aV repu
p2989
aV loca
p2990
aVd gov
p2991
aVtenti
p2992
aVfarm 
p2993
aVepend
p2994
aVtting
p2995
aVct de
p2996
aVes ne
p2997
aVexplo
p2998
aVes lo
p2999
aVhead 
p3000
a.